Component: ARM Compiler 6.14.1 Tool: armlink [5db06d00]

==============================================================================

Section Cross References

    main.o(.text.main) refers to main.o(.bss.cfg2) for cfg2
    main.o(.text.main) refers to main.o(.bss.cfg1) for cfg1
    main.o(.text.main) refers to app.o(.text.APP_System_Init) for APP_System_Init
    main.o(.text.main) refers to app.o(.text.APP_Prompt_Dump_Read) for APP_Prompt_Dump_Read
    main.o(.text.main) refers to main.o(.bss.cmd) for cmd
    main.o(.text.main) refers to app.o(.text.APP_LCD_Clear_Write) for APP_LCD_Clear_Write
    main.o(.text.main) refers to app.o(.text.APP_Send_Sentences) for APP_Send_Sentences
    main.o(.text.main) refers to main.o(.rodata.str1.1) for .L.str.1
    main.o(.text.main) refers to stk_program.o(.text.MCAL_STK_Delay_ms) for MCAL_STK_Delay_ms
    main.o(.text.main) refers to app.o(.text.APP_LCD_Write) for APP_LCD_Write
    main.o(.text.main) refers to main.o(.bss.prev_latitude) for prev_latitude
    main.o(.text.main) refers to main.o(.bss.prev_longitude) for prev_longitude
    main.o(.text.main) refers to gps.o(.text.HAL_GPS_Read) for HAL_GPS_Read
    main.o(.text.main) refers to main.o(.bss.current_latitude) for current_latitude
    main.o(.text.main) refers to main.o(.bss.current_longitude) for current_longitude
    main.o(.text.main) refers to app.o(.text.APP_Float_To_Int) for APP_Float_To_Int
    main.o(.text.main) refers to main.o(.data.counter) for counter
    main.o(.text.main) refers to app.o(.text.APP_Write_Point) for APP_Write_Point
    main.o(.text.main) refers to main.o(.bss.distance) for distance
    main.o(.text.main) refers to app.o(.text.APP_Compute_Distance) for APP_Compute_Distance
    main.o(.text.main) refers to f2d.o(x$fpl$f2d) for __aeabi_f2d
    main.o(.text.main) refers to dcmp.o(x$fpl$fcmp) for __aeabi_dcmplt
    main.o(.text.main) refers to lcd.o(.text.HAL_LCD_XY) for HAL_LCD_XY
    main.o(.text.main) refers to lcd.o(.text.HAL_LCD_Send_Number) for HAL_LCD_Send_Number
    main.o(.text.main) refers to switch.o(.text.HAL_SWITCH_GET) for HAL_SWITCH_GET
    main.o(.text.main) refers to app.o(.text.APP_Destination_Reached) for APP_Destination_Reached
    main.o(.ARM.exidx.text.main) refers to main.o(.text.main) for [Anonymous Symbol]
    eeprom_programme.o(.text.MCAL_EEPROM_INIT) refers to stk_program.o(.text.MCAL_STK_Delay_ms) for MCAL_STK_Delay_ms
    eeprom_programme.o(.text.MCAL_EEPROM_INIT) refers to eeprom_programme.o(.text.MCAL_EEPROM_Software_Reset) for MCAL_EEPROM_Software_Reset
    eeprom_programme.o(.text.MCAL_EEPROM_INIT) refers to eeprom_programme.o(.text.MCAL_EEPROM_Fix_Error) for MCAL_EEPROM_Fix_Error
    eeprom_programme.o(.ARM.exidx.text.MCAL_EEPROM_INIT) refers to eeprom_programme.o(.text.MCAL_EEPROM_INIT) for [Anonymous Symbol]
    eeprom_programme.o(.text.MCAL_EEPROM_Software_Reset) refers to stk_program.o(.text.MCAL_STK_Delay_ms) for MCAL_STK_Delay_ms
    eeprom_programme.o(.ARM.exidx.text.MCAL_EEPROM_Software_Reset) refers to eeprom_programme.o(.text.MCAL_EEPROM_Software_Reset) for [Anonymous Symbol]
    eeprom_programme.o(.text.MCAL_EEPROM_Fix_Error) refers to stk_program.o(.text.MCAL_STK_Delay_ms) for MCAL_STK_Delay_ms
    eeprom_programme.o(.text.MCAL_EEPROM_Fix_Error) refers to eeprom_programme.o(.text.MCAL_EEPROM_Software_Reset) for MCAL_EEPROM_Software_Reset
    eeprom_programme.o(.ARM.exidx.text.MCAL_EEPROM_Fix_Error) refers to eeprom_programme.o(.text.MCAL_EEPROM_Fix_Error) for [Anonymous Symbol]
    eeprom_programme.o(.ARM.exidx.text.delay) refers to eeprom_programme.o(.text.delay) for [Anonymous Symbol]
    eeprom_programme.o(.ARM.exidx.text.MCAL_EEPROM_Config_BlockOffset) refers to eeprom_programme.o(.text.MCAL_EEPROM_Config_BlockOffset) for [Anonymous Symbol]
    eeprom_programme.o(.text.MCAL_EEPROM_Read) refers to eeprom_programme.o(.text.MCAL_EEPROM_Config_BlockOffset) for MCAL_EEPROM_Config_BlockOffset
    eeprom_programme.o(.ARM.exidx.text.MCAL_EEPROM_Read) refers to eeprom_programme.o(.text.MCAL_EEPROM_Read) for [Anonymous Symbol]
    eeprom_programme.o(.text.MCAL_EEPROM_Write) refers to eeprom_programme.o(.text.MCAL_EEPROM_Config_BlockOffset) for MCAL_EEPROM_Config_BlockOffset
    eeprom_programme.o(.ARM.exidx.text.MCAL_EEPROM_Write) refers to eeprom_programme.o(.text.MCAL_EEPROM_Write) for [Anonymous Symbol]
    eeprom_programme.o(.ARM.exidx.text.MCAL_EEPROM_Mass_Erase) refers to eeprom_programme.o(.text.MCAL_EEPROM_Mass_Erase) for [Anonymous Symbol]
    gpio_proggramm.o(.ARM.exidx.text.MCAL_GPIO_INIT) refers to gpio_proggramm.o(.text.MCAL_GPIO_INIT) for [Anonymous Symbol]
    gpio_proggramm.o(.ARM.exidx.text.MCAL_GPIO_SetPinMode) refers to gpio_proggramm.o(.text.MCAL_GPIO_SetPinMode) for [Anonymous Symbol]
    gpio_proggramm.o(.ARM.exidx.text.MCAL_GPIO_SetPinValue) refers to gpio_proggramm.o(.text.MCAL_GPIO_SetPinValue) for [Anonymous Symbol]
    gpio_proggramm.o(.ARM.exidx.text.MCAL_GPIO_GetPinValue) refers to gpio_proggramm.o(.text.MCAL_GPIO_GetPinValue) for [Anonymous Symbol]
    stk_program.o(.ARM.exidx.text.STK_wait) refers to stk_program.o(.text.STK_wait) for [Anonymous Symbol]
    stk_program.o(.text.MCAL_STK_Delay_ms) refers to stk_program.o(.text.STK_wait) for STK_wait
    stk_program.o(.ARM.exidx.text.MCAL_STK_Delay_ms) refers to stk_program.o(.text.MCAL_STK_Delay_ms) for [Anonymous Symbol]
    stk_program.o(.ARM.exidx.text.MCAL_STK_Reset) refers to stk_program.o(.text.MCAL_STK_Reset) for [Anonymous Symbol]
    stk_program.o(.ARM.exidx.text.MCAL_STK_GetRemainingCounts) refers to stk_program.o(.text.MCAL_STK_GetRemainingCounts) for [Anonymous Symbol]
    stk_program.o(.text.MCAL_STK_GetElapsedCounts) refers to stk_program.o(.bss.MCAL_STK_GetElapsedCounts.Local_PreviousValue) for MCAL_STK_GetElapsedCounts.Local_PreviousValue
    stk_program.o(.ARM.exidx.text.MCAL_STK_GetElapsedCounts) refers to stk_program.o(.text.MCAL_STK_GetElapsedCounts) for [Anonymous Symbol]
    stk_program.o(.ARM.exidx.text.MCAL_STK_SetBusyWait) refers to stk_program.o(.text.MCAL_STK_SetBusyWait) for [Anonymous Symbol]
    uart_src.o(.text.MCAL_UART_Init) refers to uart_src.o(.text.UART_GPIO_RCC) for UART_GPIO_RCC
    uart_src.o(.text.MCAL_UART_Init) refers to dflt_clz.o(x$fpl$dfltu) for __aeabi_ui2d
    uart_src.o(.text.MCAL_UART_Init) refers to ddiv.o(x$fpl$ddiv) for __aeabi_ddiv
    uart_src.o(.text.MCAL_UART_Init) refers to dfixu.o(x$fpl$dfixu) for __aeabi_d2uiz
    uart_src.o(.text.MCAL_UART_Init) refers to daddsub_clz.o(x$fpl$dsub) for __aeabi_dsub
    uart_src.o(.text.MCAL_UART_Init) refers to dmul.o(x$fpl$dmul) for __aeabi_dmul
    uart_src.o(.text.MCAL_UART_Init) refers to daddsub_clz.o(x$fpl$dadd) for __aeabi_dadd
    uart_src.o(.ARM.exidx.text.MCAL_UART_Init) refers to uart_src.o(.text.MCAL_UART_Init) for [Anonymous Symbol]
    uart_src.o(.ARM.exidx.text.UART_GPIO_RCC) refers to uart_src.o(.text.UART_GPIO_RCC) for [Anonymous Symbol]
    uart_src.o(.ARM.exidx.text.MCAL_UART_Send_Byte_Poll) refers to uart_src.o(.text.MCAL_UART_Send_Byte_Poll) for [Anonymous Symbol]
    uart_src.o(.ARM.exidx.text.MCAL_UART_Receive_Byte_Poll) refers to uart_src.o(.text.MCAL_UART_Receive_Byte_Poll) for [Anonymous Symbol]
    uart_src.o(.ARM.exidx.text.MCAL_UART_Send_Byte_IT) refers to uart_src.o(.text.MCAL_UART_Send_Byte_IT) for [Anonymous Symbol]
    uart_src.o(.ARM.exidx.text.MCAL_UART_Receive_Byte_IT) refers to uart_src.o(.text.MCAL_UART_Receive_Byte_IT) for [Anonymous Symbol]
    uart_src.o(.text.MCAL_UART_Send_String) refers to uart_src.o(.text.MCAL_UART_Send_Byte_Poll) for MCAL_UART_Send_Byte_Poll
    uart_src.o(.ARM.exidx.text.MCAL_UART_Send_String) refers to uart_src.o(.text.MCAL_UART_Send_String) for [Anonymous Symbol]
    uart_src.o(.ARM.exidx.text.MCAL_UART_Receive_String) refers to uart_src.o(.text.MCAL_UART_Receive_String) for [Anonymous Symbol]
    gps.o(.text.parse_GPS_data) refers to gps.o(.rodata.str1.1) for .L.str
    gps.o(.text.parse_GPS_data) refers to strtok_r.o(.text) for strtok_r
    gps.o(.text.parse_GPS_data) refers to atof.o(i.__hardfp_atof) for __hardfp_atof
    gps.o(.text.parse_GPS_data) refers to d2f.o(x$fpl$d2f) for __aeabi_d2f
    gps.o(.ARM.exidx.text.parse_GPS_data) refers to gps.o(.text.parse_GPS_data) for [Anonymous Symbol]
    gps.o(.text.HAL_GPS_Read) refers to gps.o(.bss.GPS_Sentence) for GPS_Sentence
    gps.o(.text.HAL_GPS_Read) refers to gps.o(.text.parse_GPS_data) for parse_GPS_data
    gps.o(.text.HAL_GPS_Read) refers to uart_src.o(.text.MCAL_UART_Receive_Byte_Poll) for MCAL_UART_Receive_Byte_Poll
    gps.o(.ARM.exidx.text.HAL_GPS_Read) refers to gps.o(.text.HAL_GPS_Read) for [Anonymous Symbol]
    lcd.o(.text) refers (Special) to _printf_f.o(.ARM.Collect$$_printf_percent$$00000003) for _printf_f
    lcd.o(.text) refers (Special) to printf1.o(x$fpl$printf1) for _printf_fp_dec
    lcd.o(.text) refers (Special) to _printf_percent.o(.ARM.Collect$$_printf_percent$$00000000) for _printf_percent
    lcd.o(.text.delay_ms) refers (Special) to _printf_f.o(.ARM.Collect$$_printf_percent$$00000003) for _printf_f
    lcd.o(.text.delay_ms) refers (Special) to printf1.o(x$fpl$printf1) for _printf_fp_dec
    lcd.o(.text.delay_ms) refers (Special) to _printf_percent.o(.ARM.Collect$$_printf_percent$$00000000) for _printf_percent
    lcd.o(.ARM.exidx.text.delay_ms) refers (Special) to _printf_f.o(.ARM.Collect$$_printf_percent$$00000003) for _printf_f
    lcd.o(.ARM.exidx.text.delay_ms) refers (Special) to printf1.o(x$fpl$printf1) for _printf_fp_dec
    lcd.o(.ARM.exidx.text.delay_ms) refers (Special) to _printf_percent.o(.ARM.Collect$$_printf_percent$$00000000) for _printf_percent
    lcd.o(.ARM.exidx.text.delay_ms) refers to lcd.o(.text.delay_ms) for [Anonymous Symbol]
    lcd.o(.text.HAL_LCD_Init) refers (Special) to _printf_f.o(.ARM.Collect$$_printf_percent$$00000003) for _printf_f
    lcd.o(.text.HAL_LCD_Init) refers (Special) to printf1.o(x$fpl$printf1) for _printf_fp_dec
    lcd.o(.text.HAL_LCD_Init) refers (Special) to _printf_percent.o(.ARM.Collect$$_printf_percent$$00000000) for _printf_percent
    lcd.o(.text.HAL_LCD_Init) refers to lcd.o(.text.LCD_DATA_CTRL_Init) for LCD_DATA_CTRL_Init
    lcd.o(.text.HAL_LCD_Init) refers to lcd.o(.text.HAL_LCD_Send_CMD) for HAL_LCD_Send_CMD
    lcd.o(.ARM.exidx.text.HAL_LCD_Init) refers (Special) to _printf_f.o(.ARM.Collect$$_printf_percent$$00000003) for _printf_f
    lcd.o(.ARM.exidx.text.HAL_LCD_Init) refers (Special) to printf1.o(x$fpl$printf1) for _printf_fp_dec
    lcd.o(.ARM.exidx.text.HAL_LCD_Init) refers (Special) to _printf_percent.o(.ARM.Collect$$_printf_percent$$00000000) for _printf_percent
    lcd.o(.ARM.exidx.text.HAL_LCD_Init) refers to lcd.o(.text.HAL_LCD_Init) for [Anonymous Symbol]
    lcd.o(.text.HAL_LCD_Send_CMD) refers (Special) to _printf_f.o(.ARM.Collect$$_printf_percent$$00000003) for _printf_f
    lcd.o(.text.HAL_LCD_Send_CMD) refers (Special) to printf1.o(x$fpl$printf1) for _printf_fp_dec
    lcd.o(.text.HAL_LCD_Send_CMD) refers (Special) to _printf_percent.o(.ARM.Collect$$_printf_percent$$00000000) for _printf_percent
    lcd.o(.text.HAL_LCD_Send_CMD) refers to lcd.o(.text.RS_RESET) for RS_RESET
    lcd.o(.text.HAL_LCD_Send_CMD) refers to lcd.o(.text.RW_RESET) for RW_RESET
    lcd.o(.text.HAL_LCD_Send_CMD) refers to lcd.o(.text.E_SET) for E_SET
    lcd.o(.text.HAL_LCD_Send_CMD) refers to lcd.o(.text.delay_ms) for delay_ms
    lcd.o(.text.HAL_LCD_Send_CMD) refers to lcd.o(.text.E_RESET) for E_RESET
    lcd.o(.ARM.exidx.text.HAL_LCD_Send_CMD) refers (Special) to _printf_f.o(.ARM.Collect$$_printf_percent$$00000003) for _printf_f
    lcd.o(.ARM.exidx.text.HAL_LCD_Send_CMD) refers (Special) to printf1.o(x$fpl$printf1) for _printf_fp_dec
    lcd.o(.ARM.exidx.text.HAL_LCD_Send_CMD) refers (Special) to _printf_percent.o(.ARM.Collect$$_printf_percent$$00000000) for _printf_percent
    lcd.o(.ARM.exidx.text.HAL_LCD_Send_CMD) refers to lcd.o(.text.HAL_LCD_Send_CMD) for [Anonymous Symbol]
    lcd.o(.text.HAL_LCD_Send_Char) refers (Special) to _printf_f.o(.ARM.Collect$$_printf_percent$$00000003) for _printf_f
    lcd.o(.text.HAL_LCD_Send_Char) refers (Special) to printf1.o(x$fpl$printf1) for _printf_fp_dec
    lcd.o(.text.HAL_LCD_Send_Char) refers (Special) to _printf_percent.o(.ARM.Collect$$_printf_percent$$00000000) for _printf_percent
    lcd.o(.text.HAL_LCD_Send_Char) refers to lcd.o(.text.RS_SET) for RS_SET
    lcd.o(.text.HAL_LCD_Send_Char) refers to lcd.o(.text.RW_RESET) for RW_RESET
    lcd.o(.text.HAL_LCD_Send_Char) refers to lcd.o(.text.E_SET) for E_SET
    lcd.o(.text.HAL_LCD_Send_Char) refers to lcd.o(.text.delay_ms) for delay_ms
    lcd.o(.text.HAL_LCD_Send_Char) refers to lcd.o(.text.E_RESET) for E_RESET
    lcd.o(.ARM.exidx.text.HAL_LCD_Send_Char) refers (Special) to _printf_f.o(.ARM.Collect$$_printf_percent$$00000003) for _printf_f
    lcd.o(.ARM.exidx.text.HAL_LCD_Send_Char) refers (Special) to printf1.o(x$fpl$printf1) for _printf_fp_dec
    lcd.o(.ARM.exidx.text.HAL_LCD_Send_Char) refers (Special) to _printf_percent.o(.ARM.Collect$$_printf_percent$$00000000) for _printf_percent
    lcd.o(.ARM.exidx.text.HAL_LCD_Send_Char) refers to lcd.o(.text.HAL_LCD_Send_Char) for [Anonymous Symbol]
    lcd.o(.text.HAL_LCD_Send_String) refers (Special) to _printf_f.o(.ARM.Collect$$_printf_percent$$00000003) for _printf_f
    lcd.o(.text.HAL_LCD_Send_String) refers (Special) to printf1.o(x$fpl$printf1) for _printf_fp_dec
    lcd.o(.text.HAL_LCD_Send_String) refers (Special) to _printf_percent.o(.ARM.Collect$$_printf_percent$$00000000) for _printf_percent
    lcd.o(.text.HAL_LCD_Send_String) refers to lcd.o(.text.HAL_LCD_Send_Char) for HAL_LCD_Send_Char
    lcd.o(.ARM.exidx.text.HAL_LCD_Send_String) refers (Special) to _printf_f.o(.ARM.Collect$$_printf_percent$$00000003) for _printf_f
    lcd.o(.ARM.exidx.text.HAL_LCD_Send_String) refers (Special) to printf1.o(x$fpl$printf1) for _printf_fp_dec
    lcd.o(.ARM.exidx.text.HAL_LCD_Send_String) refers (Special) to _printf_percent.o(.ARM.Collect$$_printf_percent$$00000000) for _printf_percent
    lcd.o(.ARM.exidx.text.HAL_LCD_Send_String) refers to lcd.o(.text.HAL_LCD_Send_String) for [Anonymous Symbol]
    lcd.o(.text.HAL_LCD_Send_Number) refers (Special) to _printf_f.o(.ARM.Collect$$_printf_percent$$00000003) for _printf_f
    lcd.o(.text.HAL_LCD_Send_Number) refers (Special) to printf1.o(x$fpl$printf1) for _printf_fp_dec
    lcd.o(.text.HAL_LCD_Send_Number) refers (Special) to _printf_percent.o(.ARM.Collect$$_printf_percent$$00000000) for _printf_percent
    lcd.o(.text.HAL_LCD_Send_Number) refers to noretval__2sprintf.o(.text) for __2sprintf
    lcd.o(.text.HAL_LCD_Send_Number) refers to lcd.o(.text.HAL_LCD_Send_String) for HAL_LCD_Send_String
    lcd.o(.ARM.exidx.text.HAL_LCD_Send_Number) refers (Special) to _printf_f.o(.ARM.Collect$$_printf_percent$$00000003) for _printf_f
    lcd.o(.ARM.exidx.text.HAL_LCD_Send_Number) refers (Special) to printf1.o(x$fpl$printf1) for _printf_fp_dec
    lcd.o(.ARM.exidx.text.HAL_LCD_Send_Number) refers (Special) to _printf_percent.o(.ARM.Collect$$_printf_percent$$00000000) for _printf_percent
    lcd.o(.ARM.exidx.text.HAL_LCD_Send_Number) refers to lcd.o(.text.HAL_LCD_Send_Number) for [Anonymous Symbol]
    lcd.o(.text.HAL_LCD_Clear) refers (Special) to _printf_f.o(.ARM.Collect$$_printf_percent$$00000003) for _printf_f
    lcd.o(.text.HAL_LCD_Clear) refers (Special) to printf1.o(x$fpl$printf1) for _printf_fp_dec
    lcd.o(.text.HAL_LCD_Clear) refers (Special) to _printf_percent.o(.ARM.Collect$$_printf_percent$$00000000) for _printf_percent
    lcd.o(.text.HAL_LCD_Clear) refers to lcd.o(.text.HAL_LCD_Send_CMD) for HAL_LCD_Send_CMD
    lcd.o(.ARM.exidx.text.HAL_LCD_Clear) refers (Special) to _printf_f.o(.ARM.Collect$$_printf_percent$$00000003) for _printf_f
    lcd.o(.ARM.exidx.text.HAL_LCD_Clear) refers (Special) to printf1.o(x$fpl$printf1) for _printf_fp_dec
    lcd.o(.ARM.exidx.text.HAL_LCD_Clear) refers (Special) to _printf_percent.o(.ARM.Collect$$_printf_percent$$00000000) for _printf_percent
    lcd.o(.ARM.exidx.text.HAL_LCD_Clear) refers to lcd.o(.text.HAL_LCD_Clear) for [Anonymous Symbol]
    lcd.o(.text.HAL_LCD_XY) refers (Special) to _printf_f.o(.ARM.Collect$$_printf_percent$$00000003) for _printf_f
    lcd.o(.text.HAL_LCD_XY) refers (Special) to printf1.o(x$fpl$printf1) for _printf_fp_dec
    lcd.o(.text.HAL_LCD_XY) refers (Special) to _printf_percent.o(.ARM.Collect$$_printf_percent$$00000000) for _printf_percent
    lcd.o(.text.HAL_LCD_XY) refers to lcd.o(.text.HAL_LCD_Send_CMD) for HAL_LCD_Send_CMD
    lcd.o(.ARM.exidx.text.HAL_LCD_XY) refers (Special) to _printf_f.o(.ARM.Collect$$_printf_percent$$00000003) for _printf_f
    lcd.o(.ARM.exidx.text.HAL_LCD_XY) refers (Special) to printf1.o(x$fpl$printf1) for _printf_fp_dec
    lcd.o(.ARM.exidx.text.HAL_LCD_XY) refers (Special) to _printf_percent.o(.ARM.Collect$$_printf_percent$$00000000) for _printf_percent
    lcd.o(.ARM.exidx.text.HAL_LCD_XY) refers to lcd.o(.text.HAL_LCD_XY) for [Anonymous Symbol]
    lcd.o(.text.LCD_DATA_CTRL_Init) refers (Special) to _printf_f.o(.ARM.Collect$$_printf_percent$$00000003) for _printf_f
    lcd.o(.text.LCD_DATA_CTRL_Init) refers (Special) to printf1.o(x$fpl$printf1) for _printf_fp_dec
    lcd.o(.text.LCD_DATA_CTRL_Init) refers (Special) to _printf_percent.o(.ARM.Collect$$_printf_percent$$00000000) for _printf_percent
    lcd.o(.text.LCD_DATA_CTRL_Init) refers to gpio_proggramm.o(.text.MCAL_GPIO_INIT) for MCAL_GPIO_INIT
    lcd.o(.text.LCD_DATA_CTRL_Init) refers to gpio_proggramm.o(.text.MCAL_GPIO_SetPinMode) for MCAL_GPIO_SetPinMode
    lcd.o(.ARM.exidx.text.LCD_DATA_CTRL_Init) refers (Special) to _printf_f.o(.ARM.Collect$$_printf_percent$$00000003) for _printf_f
    lcd.o(.ARM.exidx.text.LCD_DATA_CTRL_Init) refers (Special) to printf1.o(x$fpl$printf1) for _printf_fp_dec
    lcd.o(.ARM.exidx.text.LCD_DATA_CTRL_Init) refers (Special) to _printf_percent.o(.ARM.Collect$$_printf_percent$$00000000) for _printf_percent
    lcd.o(.ARM.exidx.text.LCD_DATA_CTRL_Init) refers to lcd.o(.text.LCD_DATA_CTRL_Init) for [Anonymous Symbol]
    lcd.o(.text.RS_RESET) refers (Special) to _printf_f.o(.ARM.Collect$$_printf_percent$$00000003) for _printf_f
    lcd.o(.text.RS_RESET) refers (Special) to printf1.o(x$fpl$printf1) for _printf_fp_dec
    lcd.o(.text.RS_RESET) refers (Special) to _printf_percent.o(.ARM.Collect$$_printf_percent$$00000000) for _printf_percent
    lcd.o(.text.RS_RESET) refers to gpio_proggramm.o(.text.MCAL_GPIO_SetPinValue) for MCAL_GPIO_SetPinValue
    lcd.o(.ARM.exidx.text.RS_RESET) refers (Special) to _printf_f.o(.ARM.Collect$$_printf_percent$$00000003) for _printf_f
    lcd.o(.ARM.exidx.text.RS_RESET) refers (Special) to printf1.o(x$fpl$printf1) for _printf_fp_dec
    lcd.o(.ARM.exidx.text.RS_RESET) refers (Special) to _printf_percent.o(.ARM.Collect$$_printf_percent$$00000000) for _printf_percent
    lcd.o(.ARM.exidx.text.RS_RESET) refers to lcd.o(.text.RS_RESET) for [Anonymous Symbol]
    lcd.o(.text.RW_RESET) refers (Special) to _printf_f.o(.ARM.Collect$$_printf_percent$$00000003) for _printf_f
    lcd.o(.text.RW_RESET) refers (Special) to printf1.o(x$fpl$printf1) for _printf_fp_dec
    lcd.o(.text.RW_RESET) refers (Special) to _printf_percent.o(.ARM.Collect$$_printf_percent$$00000000) for _printf_percent
    lcd.o(.text.RW_RESET) refers to gpio_proggramm.o(.text.MCAL_GPIO_SetPinValue) for MCAL_GPIO_SetPinValue
    lcd.o(.ARM.exidx.text.RW_RESET) refers (Special) to _printf_f.o(.ARM.Collect$$_printf_percent$$00000003) for _printf_f
    lcd.o(.ARM.exidx.text.RW_RESET) refers (Special) to printf1.o(x$fpl$printf1) for _printf_fp_dec
    lcd.o(.ARM.exidx.text.RW_RESET) refers (Special) to _printf_percent.o(.ARM.Collect$$_printf_percent$$00000000) for _printf_percent
    lcd.o(.ARM.exidx.text.RW_RESET) refers to lcd.o(.text.RW_RESET) for [Anonymous Symbol]
    lcd.o(.text.E_SET) refers (Special) to _printf_f.o(.ARM.Collect$$_printf_percent$$00000003) for _printf_f
    lcd.o(.text.E_SET) refers (Special) to printf1.o(x$fpl$printf1) for _printf_fp_dec
    lcd.o(.text.E_SET) refers (Special) to _printf_percent.o(.ARM.Collect$$_printf_percent$$00000000) for _printf_percent
    lcd.o(.text.E_SET) refers to gpio_proggramm.o(.text.MCAL_GPIO_SetPinValue) for MCAL_GPIO_SetPinValue
    lcd.o(.ARM.exidx.text.E_SET) refers (Special) to _printf_f.o(.ARM.Collect$$_printf_percent$$00000003) for _printf_f
    lcd.o(.ARM.exidx.text.E_SET) refers (Special) to printf1.o(x$fpl$printf1) for _printf_fp_dec
    lcd.o(.ARM.exidx.text.E_SET) refers (Special) to _printf_percent.o(.ARM.Collect$$_printf_percent$$00000000) for _printf_percent
    lcd.o(.ARM.exidx.text.E_SET) refers to lcd.o(.text.E_SET) for [Anonymous Symbol]
    lcd.o(.text.E_RESET) refers (Special) to _printf_f.o(.ARM.Collect$$_printf_percent$$00000003) for _printf_f
    lcd.o(.text.E_RESET) refers (Special) to printf1.o(x$fpl$printf1) for _printf_fp_dec
    lcd.o(.text.E_RESET) refers (Special) to _printf_percent.o(.ARM.Collect$$_printf_percent$$00000000) for _printf_percent
    lcd.o(.text.E_RESET) refers to gpio_proggramm.o(.text.MCAL_GPIO_SetPinValue) for MCAL_GPIO_SetPinValue
    lcd.o(.ARM.exidx.text.E_RESET) refers (Special) to _printf_f.o(.ARM.Collect$$_printf_percent$$00000003) for _printf_f
    lcd.o(.ARM.exidx.text.E_RESET) refers (Special) to printf1.o(x$fpl$printf1) for _printf_fp_dec
    lcd.o(.ARM.exidx.text.E_RESET) refers (Special) to _printf_percent.o(.ARM.Collect$$_printf_percent$$00000000) for _printf_percent
    lcd.o(.ARM.exidx.text.E_RESET) refers to lcd.o(.text.E_RESET) for [Anonymous Symbol]
    lcd.o(.text.RS_SET) refers (Special) to _printf_f.o(.ARM.Collect$$_printf_percent$$00000003) for _printf_f
    lcd.o(.text.RS_SET) refers (Special) to printf1.o(x$fpl$printf1) for _printf_fp_dec
    lcd.o(.text.RS_SET) refers (Special) to _printf_percent.o(.ARM.Collect$$_printf_percent$$00000000) for _printf_percent
    lcd.o(.text.RS_SET) refers to gpio_proggramm.o(.text.MCAL_GPIO_SetPinValue) for MCAL_GPIO_SetPinValue
    lcd.o(.ARM.exidx.text.RS_SET) refers (Special) to _printf_f.o(.ARM.Collect$$_printf_percent$$00000003) for _printf_f
    lcd.o(.ARM.exidx.text.RS_SET) refers (Special) to printf1.o(x$fpl$printf1) for _printf_fp_dec
    lcd.o(.ARM.exidx.text.RS_SET) refers (Special) to _printf_percent.o(.ARM.Collect$$_printf_percent$$00000000) for _printf_percent
    lcd.o(.ARM.exidx.text.RS_SET) refers to lcd.o(.text.RS_SET) for [Anonymous Symbol]
    led.o(.text.HAL_LEDS_INIT) refers to gpio_proggramm.o(.text.MCAL_GPIO_INIT) for MCAL_GPIO_INIT
    led.o(.text.HAL_LEDS_INIT) refers to gpio_proggramm.o(.text.MCAL_GPIO_SetPinMode) for MCAL_GPIO_SetPinMode
    led.o(.ARM.exidx.text.HAL_LEDS_INIT) refers to led.o(.text.HAL_LEDS_INIT) for [Anonymous Symbol]
    led.o(.text.HAL_LED_SET) refers to gpio_proggramm.o(.text.MCAL_GPIO_SetPinValue) for MCAL_GPIO_SetPinValue
    led.o(.ARM.exidx.text.HAL_LED_SET) refers to led.o(.text.HAL_LED_SET) for [Anonymous Symbol]
    led.o(.text.HAL_LED_RESET) refers to gpio_proggramm.o(.text.MCAL_GPIO_SetPinValue) for MCAL_GPIO_SetPinValue
    led.o(.ARM.exidx.text.HAL_LED_RESET) refers to led.o(.text.HAL_LED_RESET) for [Anonymous Symbol]
    led.o(.text.HAL_LED_TOGGLE) refers to gpio_proggramm.o(.text.MCAL_GPIO_GetPinValue) for MCAL_GPIO_GetPinValue
    led.o(.text.HAL_LED_TOGGLE) refers to gpio_proggramm.o(.text.MCAL_GPIO_SetPinValue) for MCAL_GPIO_SetPinValue
    led.o(.ARM.exidx.text.HAL_LED_TOGGLE) refers to led.o(.text.HAL_LED_TOGGLE) for [Anonymous Symbol]
    switch.o(.text.HAL_SWITCH_INIT) refers to gpio_proggramm.o(.text.MCAL_GPIO_INIT) for MCAL_GPIO_INIT
    switch.o(.text.HAL_SWITCH_INIT) refers to gpio_proggramm.o(.text.MCAL_GPIO_SetPinMode) for MCAL_GPIO_SetPinMode
    switch.o(.ARM.exidx.text.HAL_SWITCH_INIT) refers to switch.o(.text.HAL_SWITCH_INIT) for [Anonymous Symbol]
    switch.o(.text.HAL_SWITCH_GET) refers to gpio_proggramm.o(.text.MCAL_GPIO_GetPinValue) for MCAL_GPIO_GetPinValue
    switch.o(.ARM.exidx.text.HAL_SWITCH_GET) refers to switch.o(.text.HAL_SWITCH_GET) for [Anonymous Symbol]
    app.o(.text) refers (Special) to _printf_d.o(.ARM.Collect$$_printf_percent$$00000009) for _printf_d
    app.o(.text) refers (Special) to _printf_f.o(.ARM.Collect$$_printf_percent$$00000003) for _printf_f
    app.o(.text) refers (Special) to printf1.o(x$fpl$printf1) for _printf_fp_dec
    app.o(.text) refers (Special) to _printf_dec.o(.text) for _printf_int_dec
    app.o(.text) refers (Special) to _printf_percent.o(.ARM.Collect$$_printf_percent$$00000000) for _printf_percent
    app.o(.text.APP_To_Degree) refers (Special) to _printf_d.o(.ARM.Collect$$_printf_percent$$00000009) for _printf_d
    app.o(.text.APP_To_Degree) refers (Special) to _printf_f.o(.ARM.Collect$$_printf_percent$$00000003) for _printf_f
    app.o(.text.APP_To_Degree) refers (Special) to printf1.o(x$fpl$printf1) for _printf_fp_dec
    app.o(.text.APP_To_Degree) refers (Special) to _printf_dec.o(.text) for _printf_int_dec
    app.o(.text.APP_To_Degree) refers (Special) to _printf_percent.o(.ARM.Collect$$_printf_percent$$00000000) for _printf_percent
    app.o(.text.APP_To_Degree) refers to f2d.o(x$fpl$f2d) for __aeabi_f2d
    app.o(.text.APP_To_Degree) refers to dflt_clz.o(x$fpl$dflt) for __aeabi_i2d
    app.o(.text.APP_To_Degree) refers to dmul.o(x$fpl$dmul) for __aeabi_dmul
    app.o(.text.APP_To_Degree) refers to daddsub_clz.o(x$fpl$dadd) for __aeabi_dadd
    app.o(.text.APP_To_Degree) refers to d2f.o(x$fpl$d2f) for __aeabi_d2f
    app.o(.text.APP_To_Degree) refers to ddiv.o(x$fpl$ddiv) for __aeabi_ddiv
    app.o(.ARM.exidx.text.APP_To_Degree) refers (Special) to _printf_d.o(.ARM.Collect$$_printf_percent$$00000009) for _printf_d
    app.o(.ARM.exidx.text.APP_To_Degree) refers (Special) to _printf_f.o(.ARM.Collect$$_printf_percent$$00000003) for _printf_f
    app.o(.ARM.exidx.text.APP_To_Degree) refers (Special) to printf1.o(x$fpl$printf1) for _printf_fp_dec
    app.o(.ARM.exidx.text.APP_To_Degree) refers (Special) to _printf_dec.o(.text) for _printf_int_dec
    app.o(.ARM.exidx.text.APP_To_Degree) refers (Special) to _printf_percent.o(.ARM.Collect$$_printf_percent$$00000000) for _printf_percent
    app.o(.ARM.exidx.text.APP_To_Degree) refers to app.o(.text.APP_To_Degree) for [Anonymous Symbol]
    app.o(.text.APP_To_Radian) refers (Special) to _printf_d.o(.ARM.Collect$$_printf_percent$$00000009) for _printf_d
    app.o(.text.APP_To_Radian) refers (Special) to _printf_f.o(.ARM.Collect$$_printf_percent$$00000003) for _printf_f
    app.o(.text.APP_To_Radian) refers (Special) to printf1.o(x$fpl$printf1) for _printf_fp_dec
    app.o(.text.APP_To_Radian) refers (Special) to _printf_dec.o(.text) for _printf_int_dec
    app.o(.text.APP_To_Radian) refers (Special) to _printf_percent.o(.ARM.Collect$$_printf_percent$$00000000) for _printf_percent
    app.o(.text.APP_To_Radian) refers to f2d.o(x$fpl$f2d) for __aeabi_f2d
    app.o(.text.APP_To_Radian) refers to dmul.o(x$fpl$dmul) for __aeabi_dmul
    app.o(.text.APP_To_Radian) refers to d2f.o(x$fpl$d2f) for __aeabi_d2f
    app.o(.ARM.exidx.text.APP_To_Radian) refers (Special) to _printf_d.o(.ARM.Collect$$_printf_percent$$00000009) for _printf_d
    app.o(.ARM.exidx.text.APP_To_Radian) refers (Special) to _printf_f.o(.ARM.Collect$$_printf_percent$$00000003) for _printf_f
    app.o(.ARM.exidx.text.APP_To_Radian) refers (Special) to printf1.o(x$fpl$printf1) for _printf_fp_dec
    app.o(.ARM.exidx.text.APP_To_Radian) refers (Special) to _printf_dec.o(.text) for _printf_int_dec
    app.o(.ARM.exidx.text.APP_To_Radian) refers (Special) to _printf_percent.o(.ARM.Collect$$_printf_percent$$00000000) for _printf_percent
    app.o(.ARM.exidx.text.APP_To_Radian) refers to app.o(.text.APP_To_Radian) for [Anonymous Symbol]
    app.o(.text.APP_Compute_Distance) refers (Special) to _printf_d.o(.ARM.Collect$$_printf_percent$$00000009) for _printf_d
    app.o(.text.APP_Compute_Distance) refers (Special) to _printf_f.o(.ARM.Collect$$_printf_percent$$00000003) for _printf_f
    app.o(.text.APP_Compute_Distance) refers (Special) to printf1.o(x$fpl$printf1) for _printf_fp_dec
    app.o(.text.APP_Compute_Distance) refers (Special) to _printf_dec.o(.text) for _printf_int_dec
    app.o(.text.APP_Compute_Distance) refers (Special) to _printf_percent.o(.ARM.Collect$$_printf_percent$$00000000) for _printf_percent
    app.o(.text.APP_Compute_Distance) refers to app.o(.text.APP_To_Degree) for APP_To_Degree
    app.o(.text.APP_Compute_Distance) refers to app.o(.text.APP_To_Radian) for APP_To_Radian
    app.o(.text.APP_Compute_Distance) refers to app.o(.bss.deltaLong) for deltaLong
    app.o(.text.APP_Compute_Distance) refers to app.o(.bss.deltaLat) for deltaLat
    app.o(.text.APP_Compute_Distance) refers to f2d.o(x$fpl$f2d) for __aeabi_f2d
    app.o(.text.APP_Compute_Distance) refers to sin.o(i.__hardfp_sin) for __hardfp_sin
    app.o(.text.APP_Compute_Distance) refers to pow.o(i.__hardfp_pow) for __hardfp_pow
    app.o(.text.APP_Compute_Distance) refers to cos.o(i.__hardfp_cos) for __hardfp_cos
    app.o(.text.APP_Compute_Distance) refers to dmul.o(x$fpl$dmul) for __aeabi_dmul
    app.o(.text.APP_Compute_Distance) refers to daddsub_clz.o(x$fpl$dadd) for __aeabi_dadd
    app.o(.text.APP_Compute_Distance) refers to d2f.o(x$fpl$d2f) for __aeabi_d2f
    app.o(.text.APP_Compute_Distance) refers to sqrt.o(i.__hardfp_sqrt) for __hardfp_sqrt
    app.o(.text.APP_Compute_Distance) refers to atan2.o(i.__hardfp_atan2) for __hardfp_atan2
    app.o(.ARM.exidx.text.APP_Compute_Distance) refers (Special) to _printf_d.o(.ARM.Collect$$_printf_percent$$00000009) for _printf_d
    app.o(.ARM.exidx.text.APP_Compute_Distance) refers (Special) to _printf_f.o(.ARM.Collect$$_printf_percent$$00000003) for _printf_f
    app.o(.ARM.exidx.text.APP_Compute_Distance) refers (Special) to printf1.o(x$fpl$printf1) for _printf_fp_dec
    app.o(.ARM.exidx.text.APP_Compute_Distance) refers (Special) to _printf_dec.o(.text) for _printf_int_dec
    app.o(.ARM.exidx.text.APP_Compute_Distance) refers (Special) to _printf_percent.o(.ARM.Collect$$_printf_percent$$00000000) for _printf_percent
    app.o(.ARM.exidx.text.APP_Compute_Distance) refers to app.o(.text.APP_Compute_Distance) for [Anonymous Symbol]
    app.o(.text.APP_Float_To_Int) refers (Special) to _printf_d.o(.ARM.Collect$$_printf_percent$$00000009) for _printf_d
    app.o(.text.APP_Float_To_Int) refers (Special) to _printf_f.o(.ARM.Collect$$_printf_percent$$00000003) for _printf_f
    app.o(.text.APP_Float_To_Int) refers (Special) to printf1.o(x$fpl$printf1) for _printf_fp_dec
    app.o(.text.APP_Float_To_Int) refers (Special) to _printf_dec.o(.text) for _printf_int_dec
    app.o(.text.APP_Float_To_Int) refers (Special) to _printf_percent.o(.ARM.Collect$$_printf_percent$$00000000) for _printf_percent
    app.o(.ARM.exidx.text.APP_Float_To_Int) refers (Special) to _printf_d.o(.ARM.Collect$$_printf_percent$$00000009) for _printf_d
    app.o(.ARM.exidx.text.APP_Float_To_Int) refers (Special) to _printf_f.o(.ARM.Collect$$_printf_percent$$00000003) for _printf_f
    app.o(.ARM.exidx.text.APP_Float_To_Int) refers (Special) to printf1.o(x$fpl$printf1) for _printf_fp_dec
    app.o(.ARM.exidx.text.APP_Float_To_Int) refers (Special) to _printf_dec.o(.text) for _printf_int_dec
    app.o(.ARM.exidx.text.APP_Float_To_Int) refers (Special) to _printf_percent.o(.ARM.Collect$$_printf_percent$$00000000) for _printf_percent
    app.o(.ARM.exidx.text.APP_Float_To_Int) refers to app.o(.text.APP_Float_To_Int) for [Anonymous Symbol]
    app.o(.text.APP_Int_To_Float) refers (Special) to _printf_d.o(.ARM.Collect$$_printf_percent$$00000009) for _printf_d
    app.o(.text.APP_Int_To_Float) refers (Special) to _printf_f.o(.ARM.Collect$$_printf_percent$$00000003) for _printf_f
    app.o(.text.APP_Int_To_Float) refers (Special) to printf1.o(x$fpl$printf1) for _printf_fp_dec
    app.o(.text.APP_Int_To_Float) refers (Special) to _printf_dec.o(.text) for _printf_int_dec
    app.o(.text.APP_Int_To_Float) refers (Special) to _printf_percent.o(.ARM.Collect$$_printf_percent$$00000000) for _printf_percent
    app.o(.ARM.exidx.text.APP_Int_To_Float) refers (Special) to _printf_d.o(.ARM.Collect$$_printf_percent$$00000009) for _printf_d
    app.o(.ARM.exidx.text.APP_Int_To_Float) refers (Special) to _printf_f.o(.ARM.Collect$$_printf_percent$$00000003) for _printf_f
    app.o(.ARM.exidx.text.APP_Int_To_Float) refers (Special) to printf1.o(x$fpl$printf1) for _printf_fp_dec
    app.o(.ARM.exidx.text.APP_Int_To_Float) refers (Special) to _printf_dec.o(.text) for _printf_int_dec
    app.o(.ARM.exidx.text.APP_Int_To_Float) refers (Special) to _printf_percent.o(.ARM.Collect$$_printf_percent$$00000000) for _printf_percent
    app.o(.ARM.exidx.text.APP_Int_To_Float) refers to app.o(.text.APP_Int_To_Float) for [Anonymous Symbol]
    app.o(.text.APP_Write_Point) refers (Special) to _printf_d.o(.ARM.Collect$$_printf_percent$$00000009) for _printf_d
    app.o(.text.APP_Write_Point) refers (Special) to _printf_f.o(.ARM.Collect$$_printf_percent$$00000003) for _printf_f
    app.o(.text.APP_Write_Point) refers (Special) to printf1.o(x$fpl$printf1) for _printf_fp_dec
    app.o(.text.APP_Write_Point) refers (Special) to _printf_dec.o(.text) for _printf_int_dec
    app.o(.text.APP_Write_Point) refers (Special) to _printf_percent.o(.ARM.Collect$$_printf_percent$$00000000) for _printf_percent
    app.o(.text.APP_Write_Point) refers to eeprom_programme.o(.text.MCAL_EEPROM_Write) for MCAL_EEPROM_Write
    app.o(.ARM.exidx.text.APP_Write_Point) refers (Special) to _printf_d.o(.ARM.Collect$$_printf_percent$$00000009) for _printf_d
    app.o(.ARM.exidx.text.APP_Write_Point) refers (Special) to _printf_f.o(.ARM.Collect$$_printf_percent$$00000003) for _printf_f
    app.o(.ARM.exidx.text.APP_Write_Point) refers (Special) to printf1.o(x$fpl$printf1) for _printf_fp_dec
    app.o(.ARM.exidx.text.APP_Write_Point) refers (Special) to _printf_dec.o(.text) for _printf_int_dec
    app.o(.ARM.exidx.text.APP_Write_Point) refers (Special) to _printf_percent.o(.ARM.Collect$$_printf_percent$$00000000) for _printf_percent
    app.o(.ARM.exidx.text.APP_Write_Point) refers to app.o(.text.APP_Write_Point) for [Anonymous Symbol]
    app.o(.text.APP_Read_Point) refers (Special) to _printf_d.o(.ARM.Collect$$_printf_percent$$00000009) for _printf_d
    app.o(.text.APP_Read_Point) refers (Special) to _printf_f.o(.ARM.Collect$$_printf_percent$$00000003) for _printf_f
    app.o(.text.APP_Read_Point) refers (Special) to printf1.o(x$fpl$printf1) for _printf_fp_dec
    app.o(.text.APP_Read_Point) refers (Special) to _printf_dec.o(.text) for _printf_int_dec
    app.o(.text.APP_Read_Point) refers (Special) to _printf_percent.o(.ARM.Collect$$_printf_percent$$00000000) for _printf_percent
    app.o(.text.APP_Read_Point) refers to eeprom_programme.o(.text.MCAL_EEPROM_Read) for MCAL_EEPROM_Read
    app.o(.ARM.exidx.text.APP_Read_Point) refers (Special) to _printf_d.o(.ARM.Collect$$_printf_percent$$00000009) for _printf_d
    app.o(.ARM.exidx.text.APP_Read_Point) refers (Special) to _printf_f.o(.ARM.Collect$$_printf_percent$$00000003) for _printf_f
    app.o(.ARM.exidx.text.APP_Read_Point) refers (Special) to printf1.o(x$fpl$printf1) for _printf_fp_dec
    app.o(.ARM.exidx.text.APP_Read_Point) refers (Special) to _printf_dec.o(.text) for _printf_int_dec
    app.o(.ARM.exidx.text.APP_Read_Point) refers (Special) to _printf_percent.o(.ARM.Collect$$_printf_percent$$00000000) for _printf_percent
    app.o(.ARM.exidx.text.APP_Read_Point) refers to app.o(.text.APP_Read_Point) for [Anonymous Symbol]
    app.o(.text.APP_UART_INIT) refers (Special) to _printf_d.o(.ARM.Collect$$_printf_percent$$00000009) for _printf_d
    app.o(.text.APP_UART_INIT) refers (Special) to _printf_f.o(.ARM.Collect$$_printf_percent$$00000003) for _printf_f
    app.o(.text.APP_UART_INIT) refers (Special) to printf1.o(x$fpl$printf1) for _printf_fp_dec
    app.o(.text.APP_UART_INIT) refers (Special) to _printf_dec.o(.text) for _printf_int_dec
    app.o(.text.APP_UART_INIT) refers (Special) to _printf_percent.o(.ARM.Collect$$_printf_percent$$00000000) for _printf_percent
    app.o(.text.APP_UART_INIT) refers to uart_src.o(.text.MCAL_UART_Init) for MCAL_UART_Init
    app.o(.ARM.exidx.text.APP_UART_INIT) refers (Special) to _printf_d.o(.ARM.Collect$$_printf_percent$$00000009) for _printf_d
    app.o(.ARM.exidx.text.APP_UART_INIT) refers (Special) to _printf_f.o(.ARM.Collect$$_printf_percent$$00000003) for _printf_f
    app.o(.ARM.exidx.text.APP_UART_INIT) refers (Special) to printf1.o(x$fpl$printf1) for _printf_fp_dec
    app.o(.ARM.exidx.text.APP_UART_INIT) refers (Special) to _printf_dec.o(.text) for _printf_int_dec
    app.o(.ARM.exidx.text.APP_UART_INIT) refers (Special) to _printf_percent.o(.ARM.Collect$$_printf_percent$$00000000) for _printf_percent
    app.o(.ARM.exidx.text.APP_UART_INIT) refers to app.o(.text.APP_UART_INIT) for [Anonymous Symbol]
    app.o(.text.APP_Send_Sentences) refers (Special) to _printf_d.o(.ARM.Collect$$_printf_percent$$00000009) for _printf_d
    app.o(.text.APP_Send_Sentences) refers (Special) to _printf_f.o(.ARM.Collect$$_printf_percent$$00000003) for _printf_f
    app.o(.text.APP_Send_Sentences) refers (Special) to printf1.o(x$fpl$printf1) for _printf_fp_dec
    app.o(.text.APP_Send_Sentences) refers (Special) to _printf_dec.o(.text) for _printf_int_dec
    app.o(.text.APP_Send_Sentences) refers (Special) to _printf_percent.o(.ARM.Collect$$_printf_percent$$00000000) for _printf_percent
    app.o(.text.APP_Send_Sentences) refers to eeprom_programme.o(.text.MCAL_EEPROM_Read) for MCAL_EEPROM_Read
    app.o(.text.APP_Send_Sentences) refers to noretval__2snprintf.o(.text) for __2snprintf
    app.o(.text.APP_Send_Sentences) refers to uart_src.o(.text.MCAL_UART_Send_String) for MCAL_UART_Send_String
    app.o(.text.APP_Send_Sentences) refers to app.o(.text.APP_Read_Point) for APP_Read_Point
    app.o(.text.APP_Send_Sentences) refers to f2d.o(x$fpl$f2d) for __aeabi_f2d
    app.o(.ARM.exidx.text.APP_Send_Sentences) refers (Special) to _printf_d.o(.ARM.Collect$$_printf_percent$$00000009) for _printf_d
    app.o(.ARM.exidx.text.APP_Send_Sentences) refers (Special) to _printf_f.o(.ARM.Collect$$_printf_percent$$00000003) for _printf_f
    app.o(.ARM.exidx.text.APP_Send_Sentences) refers (Special) to printf1.o(x$fpl$printf1) for _printf_fp_dec
    app.o(.ARM.exidx.text.APP_Send_Sentences) refers (Special) to _printf_dec.o(.text) for _printf_int_dec
    app.o(.ARM.exidx.text.APP_Send_Sentences) refers (Special) to _printf_percent.o(.ARM.Collect$$_printf_percent$$00000000) for _printf_percent
    app.o(.ARM.exidx.text.APP_Send_Sentences) refers to app.o(.text.APP_Send_Sentences) for [Anonymous Symbol]
    app.o(.text.APP_LCD_Write) refers (Special) to _printf_d.o(.ARM.Collect$$_printf_percent$$00000009) for _printf_d
    app.o(.text.APP_LCD_Write) refers (Special) to _printf_f.o(.ARM.Collect$$_printf_percent$$00000003) for _printf_f
    app.o(.text.APP_LCD_Write) refers (Special) to printf1.o(x$fpl$printf1) for _printf_fp_dec
    app.o(.text.APP_LCD_Write) refers (Special) to _printf_dec.o(.text) for _printf_int_dec
    app.o(.text.APP_LCD_Write) refers (Special) to _printf_percent.o(.ARM.Collect$$_printf_percent$$00000000) for _printf_percent
    app.o(.text.APP_LCD_Write) refers to lcd.o(.text.HAL_LCD_XY) for HAL_LCD_XY
    app.o(.text.APP_LCD_Write) refers to lcd.o(.text.HAL_LCD_Send_String) for HAL_LCD_Send_String
    app.o(.ARM.exidx.text.APP_LCD_Write) refers (Special) to _printf_d.o(.ARM.Collect$$_printf_percent$$00000009) for _printf_d
    app.o(.ARM.exidx.text.APP_LCD_Write) refers (Special) to _printf_f.o(.ARM.Collect$$_printf_percent$$00000003) for _printf_f
    app.o(.ARM.exidx.text.APP_LCD_Write) refers (Special) to printf1.o(x$fpl$printf1) for _printf_fp_dec
    app.o(.ARM.exidx.text.APP_LCD_Write) refers (Special) to _printf_dec.o(.text) for _printf_int_dec
    app.o(.ARM.exidx.text.APP_LCD_Write) refers (Special) to _printf_percent.o(.ARM.Collect$$_printf_percent$$00000000) for _printf_percent
    app.o(.ARM.exidx.text.APP_LCD_Write) refers to app.o(.text.APP_LCD_Write) for [Anonymous Symbol]
    app.o(.text.APP_LCD_Write_Number) refers (Special) to _printf_d.o(.ARM.Collect$$_printf_percent$$00000009) for _printf_d
    app.o(.text.APP_LCD_Write_Number) refers (Special) to _printf_f.o(.ARM.Collect$$_printf_percent$$00000003) for _printf_f
    app.o(.text.APP_LCD_Write_Number) refers (Special) to printf1.o(x$fpl$printf1) for _printf_fp_dec
    app.o(.text.APP_LCD_Write_Number) refers (Special) to _printf_dec.o(.text) for _printf_int_dec
    app.o(.text.APP_LCD_Write_Number) refers (Special) to _printf_percent.o(.ARM.Collect$$_printf_percent$$00000000) for _printf_percent
    app.o(.text.APP_LCD_Write_Number) refers to lcd.o(.text.HAL_LCD_XY) for HAL_LCD_XY
    app.o(.text.APP_LCD_Write_Number) refers to dflt_clz.o(x$fpl$dflt) for __aeabi_i2d
    app.o(.text.APP_LCD_Write_Number) refers to lcd.o(.text.HAL_LCD_Send_Number) for HAL_LCD_Send_Number
    app.o(.ARM.exidx.text.APP_LCD_Write_Number) refers (Special) to _printf_d.o(.ARM.Collect$$_printf_percent$$00000009) for _printf_d
    app.o(.ARM.exidx.text.APP_LCD_Write_Number) refers (Special) to _printf_f.o(.ARM.Collect$$_printf_percent$$00000003) for _printf_f
    app.o(.ARM.exidx.text.APP_LCD_Write_Number) refers (Special) to printf1.o(x$fpl$printf1) for _printf_fp_dec
    app.o(.ARM.exidx.text.APP_LCD_Write_Number) refers (Special) to _printf_dec.o(.text) for _printf_int_dec
    app.o(.ARM.exidx.text.APP_LCD_Write_Number) refers (Special) to _printf_percent.o(.ARM.Collect$$_printf_percent$$00000000) for _printf_percent
    app.o(.ARM.exidx.text.APP_LCD_Write_Number) refers to app.o(.text.APP_LCD_Write_Number) for [Anonymous Symbol]
    app.o(.text.APP_LCD_Clear_Write) refers (Special) to _printf_d.o(.ARM.Collect$$_printf_percent$$00000009) for _printf_d
    app.o(.text.APP_LCD_Clear_Write) refers (Special) to _printf_f.o(.ARM.Collect$$_printf_percent$$00000003) for _printf_f
    app.o(.text.APP_LCD_Clear_Write) refers (Special) to printf1.o(x$fpl$printf1) for _printf_fp_dec
    app.o(.text.APP_LCD_Clear_Write) refers (Special) to _printf_dec.o(.text) for _printf_int_dec
    app.o(.text.APP_LCD_Clear_Write) refers (Special) to _printf_percent.o(.ARM.Collect$$_printf_percent$$00000000) for _printf_percent
    app.o(.text.APP_LCD_Clear_Write) refers to lcd.o(.text.HAL_LCD_Clear) for HAL_LCD_Clear
    app.o(.text.APP_LCD_Clear_Write) refers to app.o(.text.APP_LCD_Write) for APP_LCD_Write
    app.o(.ARM.exidx.text.APP_LCD_Clear_Write) refers (Special) to _printf_d.o(.ARM.Collect$$_printf_percent$$00000009) for _printf_d
    app.o(.ARM.exidx.text.APP_LCD_Clear_Write) refers (Special) to _printf_f.o(.ARM.Collect$$_printf_percent$$00000003) for _printf_f
    app.o(.ARM.exidx.text.APP_LCD_Clear_Write) refers (Special) to printf1.o(x$fpl$printf1) for _printf_fp_dec
    app.o(.ARM.exidx.text.APP_LCD_Clear_Write) refers (Special) to _printf_dec.o(.text) for _printf_int_dec
    app.o(.ARM.exidx.text.APP_LCD_Clear_Write) refers (Special) to _printf_percent.o(.ARM.Collect$$_printf_percent$$00000000) for _printf_percent
    app.o(.ARM.exidx.text.APP_LCD_Clear_Write) refers to app.o(.text.APP_LCD_Clear_Write) for [Anonymous Symbol]
    app.o(.text.APP_Prompt_Dump_Read) refers (Special) to _printf_d.o(.ARM.Collect$$_printf_percent$$00000009) for _printf_d
    app.o(.text.APP_Prompt_Dump_Read) refers (Special) to _printf_f.o(.ARM.Collect$$_printf_percent$$00000003) for _printf_f
    app.o(.text.APP_Prompt_Dump_Read) refers (Special) to printf1.o(x$fpl$printf1) for _printf_fp_dec
    app.o(.text.APP_Prompt_Dump_Read) refers (Special) to _printf_dec.o(.text) for _printf_int_dec
    app.o(.text.APP_Prompt_Dump_Read) refers (Special) to _printf_percent.o(.ARM.Collect$$_printf_percent$$00000000) for _printf_percent
    app.o(.text.APP_Prompt_Dump_Read) refers to app.o(.text.APP_LCD_Clear_Write) for APP_LCD_Clear_Write
    app.o(.text.APP_Prompt_Dump_Read) refers to app.o(.text.APP_LCD_Write) for APP_LCD_Write
    app.o(.text.APP_Prompt_Dump_Read) refers to uart_src.o(.text.MCAL_UART_Receive_Byte_Poll) for MCAL_UART_Receive_Byte_Poll
    app.o(.ARM.exidx.text.APP_Prompt_Dump_Read) refers (Special) to _printf_d.o(.ARM.Collect$$_printf_percent$$00000009) for _printf_d
    app.o(.ARM.exidx.text.APP_Prompt_Dump_Read) refers (Special) to _printf_f.o(.ARM.Collect$$_printf_percent$$00000003) for _printf_f
    app.o(.ARM.exidx.text.APP_Prompt_Dump_Read) refers (Special) to printf1.o(x$fpl$printf1) for _printf_fp_dec
    app.o(.ARM.exidx.text.APP_Prompt_Dump_Read) refers (Special) to _printf_dec.o(.text) for _printf_int_dec
    app.o(.ARM.exidx.text.APP_Prompt_Dump_Read) refers (Special) to _printf_percent.o(.ARM.Collect$$_printf_percent$$00000000) for _printf_percent
    app.o(.ARM.exidx.text.APP_Prompt_Dump_Read) refers to app.o(.text.APP_Prompt_Dump_Read) for [Anonymous Symbol]
    app.o(.text.APP_Destination_Reached) refers (Special) to _printf_d.o(.ARM.Collect$$_printf_percent$$00000009) for _printf_d
    app.o(.text.APP_Destination_Reached) refers (Special) to _printf_f.o(.ARM.Collect$$_printf_percent$$00000003) for _printf_f
    app.o(.text.APP_Destination_Reached) refers (Special) to printf1.o(x$fpl$printf1) for _printf_fp_dec
    app.o(.text.APP_Destination_Reached) refers (Special) to _printf_dec.o(.text) for _printf_int_dec
    app.o(.text.APP_Destination_Reached) refers (Special) to _printf_percent.o(.ARM.Collect$$_printf_percent$$00000000) for _printf_percent
    app.o(.text.APP_Destination_Reached) refers to led.o(.text.HAL_LED_SET) for HAL_LED_SET
    app.o(.text.APP_Destination_Reached) refers to stk_program.o(.text.MCAL_STK_Delay_ms) for MCAL_STK_Delay_ms
    app.o(.text.APP_Destination_Reached) refers to app.o(.text.APP_LCD_Clear_Write) for APP_LCD_Clear_Write
    app.o(.text.APP_Destination_Reached) refers to app.o(.text.APP_LCD_Write) for APP_LCD_Write
    app.o(.text.APP_Destination_Reached) refers to uart_src.o(.text.MCAL_UART_Receive_Byte_Poll) for MCAL_UART_Receive_Byte_Poll
    app.o(.text.APP_Destination_Reached) refers to app.o(.text.APP_Send_Sentences) for APP_Send_Sentences
    app.o(.ARM.exidx.text.APP_Destination_Reached) refers (Special) to _printf_d.o(.ARM.Collect$$_printf_percent$$00000009) for _printf_d
    app.o(.ARM.exidx.text.APP_Destination_Reached) refers (Special) to _printf_f.o(.ARM.Collect$$_printf_percent$$00000003) for _printf_f
    app.o(.ARM.exidx.text.APP_Destination_Reached) refers (Special) to printf1.o(x$fpl$printf1) for _printf_fp_dec
    app.o(.ARM.exidx.text.APP_Destination_Reached) refers (Special) to _printf_dec.o(.text) for _printf_int_dec
    app.o(.ARM.exidx.text.APP_Destination_Reached) refers (Special) to _printf_percent.o(.ARM.Collect$$_printf_percent$$00000000) for _printf_percent
    app.o(.ARM.exidx.text.APP_Destination_Reached) refers to app.o(.text.APP_Destination_Reached) for [Anonymous Symbol]
    app.o(.text.APP_System_Init) refers (Special) to _printf_d.o(.ARM.Collect$$_printf_percent$$00000009) for _printf_d
    app.o(.text.APP_System_Init) refers (Special) to _printf_f.o(.ARM.Collect$$_printf_percent$$00000003) for _printf_f
    app.o(.text.APP_System_Init) refers (Special) to printf1.o(x$fpl$printf1) for _printf_fp_dec
    app.o(.text.APP_System_Init) refers (Special) to _printf_dec.o(.text) for _printf_int_dec
    app.o(.text.APP_System_Init) refers (Special) to _printf_percent.o(.ARM.Collect$$_printf_percent$$00000000) for _printf_percent
    app.o(.text.APP_System_Init) refers to led.o(.text.HAL_LEDS_INIT) for HAL_LEDS_INIT
    app.o(.text.APP_System_Init) refers to app.o(.text.APP_UART_INIT) for APP_UART_INIT
    app.o(.text.APP_System_Init) refers to eeprom_programme.o(.text.MCAL_EEPROM_INIT) for MCAL_EEPROM_INIT
    app.o(.text.APP_System_Init) refers to lcd.o(.text.HAL_LCD_Init) for HAL_LCD_Init
    app.o(.ARM.exidx.text.APP_System_Init) refers (Special) to _printf_d.o(.ARM.Collect$$_printf_percent$$00000009) for _printf_d
    app.o(.ARM.exidx.text.APP_System_Init) refers (Special) to _printf_f.o(.ARM.Collect$$_printf_percent$$00000003) for _printf_f
    app.o(.ARM.exidx.text.APP_System_Init) refers (Special) to printf1.o(x$fpl$printf1) for _printf_fp_dec
    app.o(.ARM.exidx.text.APP_System_Init) refers (Special) to _printf_dec.o(.text) for _printf_int_dec
    app.o(.ARM.exidx.text.APP_System_Init) refers (Special) to _printf_percent.o(.ARM.Collect$$_printf_percent$$00000000) for _printf_percent
    app.o(.ARM.exidx.text.APP_System_Init) refers to app.o(.text.APP_System_Init) for [Anonymous Symbol]
    app.o(.bss.deltaLat) refers (Special) to _printf_d.o(.ARM.Collect$$_printf_percent$$00000009) for _printf_d
    app.o(.bss.deltaLat) refers (Special) to _printf_f.o(.ARM.Collect$$_printf_percent$$00000003) for _printf_f
    app.o(.bss.deltaLat) refers (Special) to printf1.o(x$fpl$printf1) for _printf_fp_dec
    app.o(.bss.deltaLat) refers (Special) to _printf_dec.o(.text) for _printf_int_dec
    app.o(.bss.deltaLat) refers (Special) to _printf_percent.o(.ARM.Collect$$_printf_percent$$00000000) for _printf_percent
    app.o(.bss.deltaLong) refers (Special) to _printf_d.o(.ARM.Collect$$_printf_percent$$00000009) for _printf_d
    app.o(.bss.deltaLong) refers (Special) to _printf_f.o(.ARM.Collect$$_printf_percent$$00000003) for _printf_f
    app.o(.bss.deltaLong) refers (Special) to printf1.o(x$fpl$printf1) for _printf_fp_dec
    app.o(.bss.deltaLong) refers (Special) to _printf_dec.o(.text) for _printf_int_dec
    app.o(.bss.deltaLong) refers (Special) to _printf_percent.o(.ARM.Collect$$_printf_percent$$00000000) for _printf_percent
    startup_tm4c123.o(STACK) refers (Special) to heapauxi.o(.text) for __use_two_region_memory
    startup_tm4c123.o(HEAP) refers (Special) to heapauxi.o(.text) for __use_two_region_memory
    startup_tm4c123.o(RESET) refers (Special) to heapauxi.o(.text) for __use_two_region_memory
    startup_tm4c123.o(RESET) refers to startup_tm4c123.o(STACK) for __initial_sp
    startup_tm4c123.o(RESET) refers to startup_tm4c123.o(.text) for Reset_Handler
    startup_tm4c123.o(.text) refers (Special) to heapauxi.o(.text) for __use_two_region_memory
    startup_tm4c123.o(.text) refers to system_tm4c123.o(.text.SystemInit) for SystemInit
    startup_tm4c123.o(.text) refers to __main.o(!!!main) for __main
    startup_tm4c123.o(.text) refers to startup_tm4c123.o(HEAP) for Heap_Mem
    startup_tm4c123.o(.text) refers to startup_tm4c123.o(STACK) for Stack_Mem
    system_tm4c123.o(.text.SystemCoreClockUpdate) refers to system_tm4c123.o(.text.getOscClk) for getOscClk
    system_tm4c123.o(.text.SystemCoreClockUpdate) refers to system_tm4c123.o(.data.SystemCoreClock) for SystemCoreClock
    system_tm4c123.o(.ARM.exidx.text.SystemCoreClockUpdate) refers to system_tm4c123.o(.text.SystemCoreClockUpdate) for [Anonymous Symbol]
    system_tm4c123.o(.text.getOscClk) refers to system_tm4c123.o(.rodata..Lswitch.table.getOscClk) for .Lswitch.table.getOscClk
    system_tm4c123.o(.ARM.exidx.text.getOscClk) refers to system_tm4c123.o(.text.getOscClk) for [Anonymous Symbol]
    system_tm4c123.o(.ARM.exidx.text.SystemInit) refers to system_tm4c123.o(.text.SystemInit) for [Anonymous Symbol]
    __2sprintf.o(.text) refers to _printf_char_common.o(.text) for _printf_char_common
    __2sprintf.o(.text) refers to _sputc.o(.text) for _sputc
    __2snprintf.o(.text) refers to _printf_char_common.o(.text) for _printf_char_common
    __2snprintf.o(.text) refers to _sputc.o(.text) for _sputc
    __2snprintf.o(.text) refers to _snputc.o(.text) for _snputc
    noretval__2sprintf.o(.text) refers to _printf_char_common.o(.text) for _printf_char_common
    noretval__2sprintf.o(.text) refers to _sputc.o(.text) for _sputc
    noretval__2snprintf.o(.text) refers to _printf_char_common.o(.text) for _printf_char_common
    noretval__2snprintf.o(.text) refers to _sputc.o(.text) for _sputc
    noretval__2snprintf.o(.text) refers to _snputc.o(.text) for _snputc
    __printf.o(.text) refers to _printf_percent.o(.ARM.Collect$$_printf_percent$$00000000) for _printf_percent
    _printf_dec.o(.text) refers to _printf_intcommon.o(.text) for _printf_int_common
    __printf_flags.o(.text) refers to _printf_percent.o(.ARM.Collect$$_printf_percent$$00000000) for _printf_percent
    __printf_flags.o(.text) refers to __printf_flags.o(.constdata) for .constdata
    __printf_ss.o(.text) refers to _printf_percent.o(.ARM.Collect$$_printf_percent$$00000000) for _printf_percent
    __printf_flags_ss.o(.text) refers to _printf_percent.o(.ARM.Collect$$_printf_percent$$00000000) for _printf_percent
    __printf_flags_ss.o(.text) refers to __printf_flags_ss.o(.constdata) for .constdata
    __printf_wp.o(.text) refers to __printf_wp.o(i._is_digit) for _is_digit
    __printf_wp.o(.text) refers to _printf_percent.o(.ARM.Collect$$_printf_percent$$00000000) for _printf_percent
    __printf_flags_wp.o(.text) refers to __printf_wp.o(i._is_digit) for _is_digit
    __printf_flags_wp.o(.text) refers to _printf_percent.o(.ARM.Collect$$_printf_percent$$00000000) for _printf_percent
    __printf_flags_wp.o(.text) refers to __printf_flags_wp.o(.constdata) for .constdata
    __printf_ss_wp.o(.text) refers to __printf_wp.o(i._is_digit) for _is_digit
    __printf_ss_wp.o(.text) refers to _printf_percent.o(.ARM.Collect$$_printf_percent$$00000000) for _printf_percent
    __printf_flags_ss_wp.o(.text) refers to __printf_wp.o(i._is_digit) for _is_digit
    __printf_flags_ss_wp.o(.text) refers to _printf_percent.o(.ARM.Collect$$_printf_percent$$00000000) for _printf_percent
    __printf_flags_ss_wp.o(.text) refers to __printf_flags_ss_wp.o(.constdata) for .constdata
    _printf_d.o(.ARM.Collect$$_printf_percent$$00000009) refers (Weak) to _printf_dec.o(.text) for _printf_int_dec
    _printf_f.o(.ARM.Collect$$_printf_percent$$00000003) refers (Weak) to printf1.o(x$fpl$printf1) for _printf_fp_dec
    _printf_percent.o(.ARM.Collect$$_printf_percent$$00000000) refers (Special) to _printf_percent_end.o(.ARM.Collect$$_printf_percent$$00000017) for _printf_percent_end
    strtok_r.o(.text) refers to strtok_int.o(.text) for __strtok_internal
    __main.o(!!!main) refers to __rtentry.o(.ARM.Collect$$rtentry$$00000000) for __rt_entry
    d2f.o(x$fpl$d2f) refers (Special) to usenofp.o(x$fpl$usenofp) for __I$use$fp
    d2f.o(x$fpl$d2f) refers to fretinf.o(x$fpl$fretinf) for __fpl_fretinf
    d2f.o(x$fpl$d2f) refers to dnaninf.o(x$fpl$dnaninf) for __fpl_dnaninf
    daddsub_clz.o(x$fpl$dadd) refers (Special) to usenofp.o(x$fpl$usenofp) for __I$use$fp
    daddsub_clz.o(x$fpl$dadd) refers to daddsub_clz.o(x$fpl$dsub) for _dsub1
    daddsub_clz.o(x$fpl$dadd) refers to dretinf.o(x$fpl$dretinf) for __fpl_dretinf
    daddsub_clz.o(x$fpl$dadd) refers to dnaninf.o(x$fpl$dnaninf) for __fpl_dnaninf
    daddsub_clz.o(x$fpl$drsb) refers (Special) to usenofp.o(x$fpl$usenofp) for __I$use$fp
    daddsub_clz.o(x$fpl$drsb) refers to daddsub_clz.o(x$fpl$dadd) for _dadd1
    daddsub_clz.o(x$fpl$drsb) refers to daddsub_clz.o(x$fpl$dsub) for _dsub1
    daddsub_clz.o(x$fpl$dsub) refers (Special) to usenofp.o(x$fpl$usenofp) for __I$use$fp
    daddsub_clz.o(x$fpl$dsub) refers to daddsub_clz.o(x$fpl$dadd) for _dadd1
    daddsub_clz.o(x$fpl$dsub) refers to dnaninf.o(x$fpl$dnaninf) for __fpl_dnaninf
    dcmp.o(x$fpl$fcmp) refers (Special) to usenofp.o(x$fpl$usenofp) for __I$use$fp
    dcmp.o(x$fpl$fcmp) refers to deqf.o(x$fpl$deqf) for _dcmpeq
    dcmp.o(x$fpl$fcmp) refers to dgeqf.o(x$fpl$dgeqf) for _dcmpge
    dcmp.o(x$fpl$fcmp) refers to dleqf.o(x$fpl$dleqf) for _dcmple
    ddiv.o(x$fpl$drdiv) refers (Special) to usenofp.o(x$fpl$usenofp) for __I$use$fp
    ddiv.o(x$fpl$drdiv) refers to ddiv.o(x$fpl$ddiv) for ddiv_entry
    ddiv.o(x$fpl$ddiv) refers (Special) to usenofp.o(x$fpl$usenofp) for __I$use$fp
    ddiv.o(x$fpl$ddiv) refers to dretinf.o(x$fpl$dretinf) for __fpl_dretinf
    ddiv.o(x$fpl$ddiv) refers to dnaninf.o(x$fpl$dnaninf) for __fpl_dnaninf
    dfixu.o(x$fpl$dfixu) refers (Special) to usenofp.o(x$fpl$usenofp) for __I$use$fp
    dfixu.o(x$fpl$dfixu) refers to dnaninf.o(x$fpl$dnaninf) for __fpl_dnaninf
    dfixu.o(x$fpl$dfixur) refers (Special) to usenofp.o(x$fpl$usenofp) for __I$use$fp
    dfixu.o(x$fpl$dfixur) refers to dnaninf.o(x$fpl$dnaninf) for __fpl_dnaninf
    dflt_clz.o(x$fpl$dfltu) refers (Special) to usenofp.o(x$fpl$usenofp) for __I$use$fp
    dflt_clz.o(x$fpl$dflt) refers (Special) to usenofp.o(x$fpl$usenofp) for __I$use$fp
    dflt_clz.o(x$fpl$dfltn) refers (Special) to usenofp.o(x$fpl$usenofp) for __I$use$fp
    dmul.o(x$fpl$dmul) refers (Special) to usenofp.o(x$fpl$usenofp) for __I$use$fp
    dmul.o(x$fpl$dmul) refers to dretinf.o(x$fpl$dretinf) for __fpl_dretinf
    dmul.o(x$fpl$dmul) refers to dnaninf.o(x$fpl$dnaninf) for __fpl_dnaninf
    f2d.o(x$fpl$f2d) refers (Special) to usenofp.o(x$fpl$usenofp) for __I$use$fp
    f2d.o(x$fpl$f2d) refers to fnaninf.o(x$fpl$fnaninf) for __fpl_fnaninf
    f2d.o(x$fpl$f2d) refers to dretinf.o(x$fpl$dretinf) for __fpl_dretinf
    printf1.o(x$fpl$printf1) refers to _printf_fp_dec.o(.text) for _printf_fp_dec_real
    atan2.o(i.__hardfp_atan2) refers (Special) to usenofp.o(x$fpl$usenofp) for __I$use$fp
    atan2.o(i.__hardfp_atan2) refers to dunder.o(i.__mathlib_dbl_infnan2) for __mathlib_dbl_infnan2
    atan2.o(i.__hardfp_atan2) refers to atan.o(i.atan) for atan
    atan2.o(i.__hardfp_atan2) refers to basic.o(x$fpl$basic) for __aeabi_dneg
    atan2.o(i.__hardfp_atan2) refers to ddiv.o(x$fpl$ddiv) for __aeabi_ddiv
    atan2.o(i.__hardfp_atan2) refers to fabs.o(i.fabs) for fabs
    atan2.o(i.__hardfp_atan2) refers to daddsub_clz.o(x$fpl$dsub) for __aeabi_dsub
    atan2.o(i.__hardfp_atan2) refers to deqf.o(x$fpl$deqf) for __aeabi_cdcmpeq
    atan2.o(i.__hardfp_atan2) refers to _rserrno.o(.text) for __set_errno
    atan2.o(i.__hardfp_atan2) refers to daddsub_clz.o(x$fpl$drsb) for __aeabi_drsub
    atan2.o(i.__hardfp_atan2) refers to qnan.o(.constdata) for __mathlib_zero
    atan2.o(i.__softfp_atan2) refers (Special) to usenofp.o(x$fpl$usenofp) for __I$use$fp
    atan2.o(i.__softfp_atan2) refers to atan2.o(i.__hardfp_atan2) for __hardfp_atan2
    atan2.o(i.atan2) refers (Special) to usenofp.o(x$fpl$usenofp) for __I$use$fp
    atan2.o(i.atan2) refers to atan2.o(i.__hardfp_atan2) for __hardfp_atan2
    atan2_x.o(i.____hardfp_atan2$lsc) refers (Special) to usenofp.o(x$fpl$usenofp) for __I$use$fp
    atan2_x.o(i.____hardfp_atan2$lsc) refers to dunder.o(i.__mathlib_dbl_infnan2) for __mathlib_dbl_infnan2
    atan2_x.o(i.____hardfp_atan2$lsc) refers to atan.o(i.atan) for atan
    atan2_x.o(i.____hardfp_atan2$lsc) refers to _rserrno.o(.text) for __set_errno
    atan2_x.o(i.____hardfp_atan2$lsc) refers to basic.o(x$fpl$basic) for __aeabi_dneg
    atan2_x.o(i.____hardfp_atan2$lsc) refers to ddiv.o(x$fpl$ddiv) for __aeabi_ddiv
    atan2_x.o(i.____hardfp_atan2$lsc) refers to fabs.o(i.fabs) for fabs
    atan2_x.o(i.____hardfp_atan2$lsc) refers to daddsub_clz.o(x$fpl$dsub) for __aeabi_dsub
    atan2_x.o(i.____hardfp_atan2$lsc) refers to deqf.o(x$fpl$deqf) for __aeabi_cdcmpeq
    atan2_x.o(i.____hardfp_atan2$lsc) refers to daddsub_clz.o(x$fpl$drsb) for __aeabi_drsub
    atan2_x.o(i.____hardfp_atan2$lsc) refers to qnan.o(.constdata) for __mathlib_zero
    atan2_x.o(i.____softfp_atan2$lsc) refers (Special) to usenofp.o(x$fpl$usenofp) for __I$use$fp
    atan2_x.o(i.____softfp_atan2$lsc) refers to atan2_x.o(i.____hardfp_atan2$lsc) for ____hardfp_atan2$lsc
    atan2_x.o(i.__atan2$lsc) refers (Special) to usenofp.o(x$fpl$usenofp) for __I$use$fp
    atan2_x.o(i.__atan2$lsc) refers to atan2_x.o(i.____hardfp_atan2$lsc) for ____hardfp_atan2$lsc
    atof.o(i.__hardfp_atof) refers (Special) to usenofp.o(x$fpl$usenofp) for __I$use$fp
    atof.o(i.__hardfp_atof) refers to _rserrno.o(.text) for __read_errno
    atof.o(i.__hardfp_atof) refers to strtod.o(.text) for __strtod_int
    atof.o(i.__softfp_atof) refers (Special) to usenofp.o(x$fpl$usenofp) for __I$use$fp
    atof.o(i.__softfp_atof) refers to _rserrno.o(.text) for __read_errno
    atof.o(i.__softfp_atof) refers to strtod.o(.text) for __strtod_int
    atof.o(i.atof) refers (Special) to usenofp.o(x$fpl$usenofp) for __I$use$fp
    atof.o(i.atof) refers to _rserrno.o(.text) for __read_errno
    atof.o(i.atof) refers to strtod.o(.text) for __strtod_int
    cos.o(i.__hardfp_cos) refers (Special) to usenofp.o(x$fpl$usenofp) for __I$use$fp
    cos.o(i.__hardfp_cos) refers to _rserrno.o(.text) for __set_errno
    cos.o(i.__hardfp_cos) refers to dunder.o(i.__mathlib_dbl_invalid) for __mathlib_dbl_invalid
    cos.o(i.__hardfp_cos) refers to dunder.o(i.__mathlib_dbl_infnan) for __mathlib_dbl_infnan
    cos.o(i.__hardfp_cos) refers to rred.o(i.__ieee754_rem_pio2) for __ieee754_rem_pio2
    cos.o(i.__hardfp_cos) refers to sin_i.o(i.__kernel_sin) for __kernel_sin
    cos.o(i.__hardfp_cos) refers to cos_i.o(i.__kernel_cos) for __kernel_cos
    cos.o(i.__hardfp_cos) refers to basic.o(x$fpl$basic) for __aeabi_dneg
    cos.o(i.__softfp_cos) refers (Special) to usenofp.o(x$fpl$usenofp) for __I$use$fp
    cos.o(i.__softfp_cos) refers to cos.o(i.__hardfp_cos) for __hardfp_cos
    cos.o(i.cos) refers (Special) to usenofp.o(x$fpl$usenofp) for __I$use$fp
    cos.o(i.cos) refers to cos.o(i.__hardfp_cos) for __hardfp_cos
    cos_x.o(i.____hardfp_cos$lsc) refers (Special) to usenofp.o(x$fpl$usenofp) for __I$use$fp
    cos_x.o(i.____hardfp_cos$lsc) refers to _rserrno.o(.text) for __set_errno
    cos_x.o(i.____hardfp_cos$lsc) refers to dunder.o(i.__mathlib_dbl_infnan) for __mathlib_dbl_infnan
    cos_x.o(i.____hardfp_cos$lsc) refers to rred.o(i.__ieee754_rem_pio2) for __ieee754_rem_pio2
    cos_x.o(i.____hardfp_cos$lsc) refers to sin_i.o(i.__kernel_sin) for __kernel_sin
    cos_x.o(i.____hardfp_cos$lsc) refers to cos_i.o(i.__kernel_cos) for __kernel_cos
    cos_x.o(i.____hardfp_cos$lsc) refers to basic.o(x$fpl$basic) for __aeabi_dneg
    cos_x.o(i.____softfp_cos$lsc) refers (Special) to usenofp.o(x$fpl$usenofp) for __I$use$fp
    cos_x.o(i.____softfp_cos$lsc) refers to cos_x.o(i.____hardfp_cos$lsc) for ____hardfp_cos$lsc
    cos_x.o(i.__cos$lsc) refers (Special) to usenofp.o(x$fpl$usenofp) for __I$use$fp
    cos_x.o(i.__cos$lsc) refers to cos_x.o(i.____hardfp_cos$lsc) for ____hardfp_cos$lsc
    pow.o(i.__hardfp_pow) refers (Special) to usenofp.o(x$fpl$usenofp) for __I$use$fp
    pow.o(i.__hardfp_pow) refers to dunder.o(i.__mathlib_dbl_infnan2) for __mathlib_dbl_infnan2
    pow.o(i.__hardfp_pow) refers to _rserrno.o(.text) for __set_errno
    pow.o(i.__hardfp_pow) refers to dunder.o(i.__mathlib_dbl_divzero) for __mathlib_dbl_divzero
    pow.o(i.__hardfp_pow) refers to basic.o(x$fpl$basic) for __aeabi_dneg
    pow.o(i.__hardfp_pow) refers to dunder.o(i.__mathlib_dbl_overflow) for __mathlib_dbl_overflow
    pow.o(i.__hardfp_pow) refers to ddiv.o(x$fpl$ddiv) for __aeabi_ddiv
    pow.o(i.__hardfp_pow) refers to sqrt.o(i.sqrt) for sqrt
    pow.o(i.__hardfp_pow) refers to fabs.o(i.fabs) for fabs
    pow.o(i.__hardfp_pow) refers to dflt_clz.o(x$fpl$dflt) for __aeabi_i2d
    pow.o(i.__hardfp_pow) refers to dunder.o(i.__mathlib_dbl_invalid) for __mathlib_dbl_invalid
    pow.o(i.__hardfp_pow) refers to dmul.o(x$fpl$dmul) for __aeabi_dmul
    pow.o(i.__hardfp_pow) refers to dunder.o(i.__mathlib_dbl_underflow) for __mathlib_dbl_underflow
    pow.o(i.__hardfp_pow) refers to daddsub_clz.o(x$fpl$dsub) for __aeabi_dsub
    pow.o(i.__hardfp_pow) refers to daddsub_clz.o(x$fpl$drsb) for __aeabi_drsub
    pow.o(i.__hardfp_pow) refers to qnan.o(.constdata) for __mathlib_zero
    pow.o(i.__hardfp_pow) refers to daddsub_clz.o(x$fpl$dadd) for __aeabi_dadd
    pow.o(i.__hardfp_pow) refers to poly.o(i.__kernel_poly) for __kernel_poly
    pow.o(i.__hardfp_pow) refers to pow.o(.constdata) for .constdata
    pow.o(i.__hardfp_pow) refers to drleqf.o(x$fpl$drleqf) for __aeabi_cdrcmple
    pow.o(i.__hardfp_pow) refers to scalbn.o(x$fpl$scalbn) for __ARM_scalbn
    pow.o(i.__hardfp_pow) refers to fpclassify.o(i.__ARM_fpclassify) for __ARM_fpclassify
    pow.o(i.__softfp_pow) refers (Special) to usenofp.o(x$fpl$usenofp) for __I$use$fp
    pow.o(i.__softfp_pow) refers to pow.o(i.__hardfp_pow) for __hardfp_pow
    pow.o(i.pow) refers (Special) to usenofp.o(x$fpl$usenofp) for __I$use$fp
    pow.o(i.pow) refers to pow.o(i.__hardfp_pow) for __hardfp_pow
    pow.o(.constdata) refers (Special) to usenofp.o(x$fpl$usenofp) for __I$use$fp
    pow_x.o(i.____hardfp_pow$lsc) refers (Special) to usenofp.o(x$fpl$usenofp) for __I$use$fp
    pow_x.o(i.____hardfp_pow$lsc) refers to dunder.o(i.__mathlib_dbl_infnan2) for __mathlib_dbl_infnan2
    pow_x.o(i.____hardfp_pow$lsc) refers to _rserrno.o(.text) for __set_errno
    pow_x.o(i.____hardfp_pow$lsc) refers to basic.o(x$fpl$basic) for __aeabi_dneg
    pow_x.o(i.____hardfp_pow$lsc) refers to ddiv.o(x$fpl$ddiv) for __aeabi_ddiv
    pow_x.o(i.____hardfp_pow$lsc) refers to sqrt.o(i.sqrt) for sqrt
    pow_x.o(i.____hardfp_pow$lsc) refers to fabs.o(i.fabs) for fabs
    pow_x.o(i.____hardfp_pow$lsc) refers to dflt_clz.o(x$fpl$dflt) for __aeabi_i2d
    pow_x.o(i.____hardfp_pow$lsc) refers to dmul.o(x$fpl$dmul) for __aeabi_dmul
    pow_x.o(i.____hardfp_pow$lsc) refers to daddsub_clz.o(x$fpl$dsub) for __aeabi_dsub
    pow_x.o(i.____hardfp_pow$lsc) refers to daddsub_clz.o(x$fpl$drsb) for __aeabi_drsub
    pow_x.o(i.____hardfp_pow$lsc) refers to qnan.o(.constdata) for __mathlib_zero
    pow_x.o(i.____hardfp_pow$lsc) refers to daddsub_clz.o(x$fpl$dadd) for __aeabi_dadd
    pow_x.o(i.____hardfp_pow$lsc) refers to poly.o(i.__kernel_poly) for __kernel_poly
    pow_x.o(i.____hardfp_pow$lsc) refers to pow_x.o(.constdata) for .constdata
    pow_x.o(i.____hardfp_pow$lsc) refers to drleqf.o(x$fpl$drleqf) for __aeabi_cdrcmple
    pow_x.o(i.____hardfp_pow$lsc) refers to scalbn.o(x$fpl$scalbn) for __ARM_scalbn
    pow_x.o(i.____softfp_pow$lsc) refers (Special) to usenofp.o(x$fpl$usenofp) for __I$use$fp
    pow_x.o(i.____softfp_pow$lsc) refers to pow_x.o(i.____hardfp_pow$lsc) for ____hardfp_pow$lsc
    pow_x.o(i.__pow$lsc) refers (Special) to usenofp.o(x$fpl$usenofp) for __I$use$fp
    pow_x.o(i.__pow$lsc) refers to pow_x.o(i.____hardfp_pow$lsc) for ____hardfp_pow$lsc
    pow_x.o(.constdata) refers (Special) to usenofp.o(x$fpl$usenofp) for __I$use$fp
    sin.o(i.__hardfp_sin) refers (Special) to usenofp.o(x$fpl$usenofp) for __I$use$fp
    sin.o(i.__hardfp_sin) refers to _rserrno.o(.text) for __set_errno
    sin.o(i.__hardfp_sin) refers to dunder.o(i.__mathlib_dbl_invalid) for __mathlib_dbl_invalid
    sin.o(i.__hardfp_sin) refers to dunder.o(i.__mathlib_dbl_infnan) for __mathlib_dbl_infnan
    sin.o(i.__hardfp_sin) refers to rred.o(i.__ieee754_rem_pio2) for __ieee754_rem_pio2
    sin.o(i.__hardfp_sin) refers to cos_i.o(i.__kernel_cos) for __kernel_cos
    sin.o(i.__hardfp_sin) refers to basic.o(x$fpl$basic) for __aeabi_dneg
    sin.o(i.__hardfp_sin) refers to sin_i.o(i.__kernel_sin) for __kernel_sin
    sin.o(i.__softfp_sin) refers (Special) to usenofp.o(x$fpl$usenofp) for __I$use$fp
    sin.o(i.__softfp_sin) refers to sin.o(i.__hardfp_sin) for __hardfp_sin
    sin.o(i.sin) refers (Special) to usenofp.o(x$fpl$usenofp) for __I$use$fp
    sin.o(i.sin) refers to sin.o(i.__hardfp_sin) for __hardfp_sin
    sin_x.o(i.____hardfp_sin$lsc) refers (Special) to usenofp.o(x$fpl$usenofp) for __I$use$fp
    sin_x.o(i.____hardfp_sin$lsc) refers to _rserrno.o(.text) for __set_errno
    sin_x.o(i.____hardfp_sin$lsc) refers to dunder.o(i.__mathlib_dbl_infnan) for __mathlib_dbl_infnan
    sin_x.o(i.____hardfp_sin$lsc) refers to rred.o(i.__ieee754_rem_pio2) for __ieee754_rem_pio2
    sin_x.o(i.____hardfp_sin$lsc) refers to cos_i.o(i.__kernel_cos) for __kernel_cos
    sin_x.o(i.____hardfp_sin$lsc) refers to basic.o(x$fpl$basic) for __aeabi_dneg
    sin_x.o(i.____hardfp_sin$lsc) refers to sin_i.o(i.__kernel_sin) for __kernel_sin
    sin_x.o(i.____softfp_sin$lsc) refers (Special) to usenofp.o(x$fpl$usenofp) for __I$use$fp
    sin_x.o(i.____softfp_sin$lsc) refers to sin_x.o(i.____hardfp_sin$lsc) for ____hardfp_sin$lsc
    sin_x.o(i.__sin$lsc) refers (Special) to usenofp.o(x$fpl$usenofp) for __I$use$fp
    sin_x.o(i.__sin$lsc) refers to sin_x.o(i.____hardfp_sin$lsc) for ____hardfp_sin$lsc
    sqrt.o(i.__hardfp_sqrt) refers (Special) to usenofp.o(x$fpl$usenofp) for __I$use$fp
    sqrt.o(i.__hardfp_sqrt) refers to dsqrt_umaal.o(x$fpl$dsqrt) for _dsqrt
    sqrt.o(i.__hardfp_sqrt) refers to _rserrno.o(.text) for __set_errno
    sqrt.o(i.__softfp_sqrt) refers (Special) to usenofp.o(x$fpl$usenofp) for __I$use$fp
    sqrt.o(i.__softfp_sqrt) refers to dsqrt_umaal.o(x$fpl$dsqrt) for _dsqrt
    sqrt.o(i.__softfp_sqrt) refers to _rserrno.o(.text) for __set_errno
    sqrt.o(i.sqrt) refers (Special) to usenofp.o(x$fpl$usenofp) for __I$use$fp
    sqrt.o(i.sqrt) refers to dsqrt_umaal.o(x$fpl$dsqrt) for _dsqrt
    sqrt.o(i.sqrt) refers to _rserrno.o(.text) for __set_errno
    sqrt_x.o(i.____hardfp_sqrt$lsc) refers (Special) to usenofp.o(x$fpl$usenofp) for __I$use$fp
    sqrt_x.o(i.____hardfp_sqrt$lsc) refers to dleqf.o(x$fpl$dleqf) for __aeabi_cdcmple
    sqrt_x.o(i.____hardfp_sqrt$lsc) refers to _rserrno.o(.text) for __set_errno
    sqrt_x.o(i.____hardfp_sqrt$lsc) refers to dsqrt_umaal.o(x$fpl$dsqrt) for _dsqrt
    sqrt_x.o(i.____softfp_sqrt$lsc) refers (Special) to usenofp.o(x$fpl$usenofp) for __I$use$fp
    sqrt_x.o(i.____softfp_sqrt$lsc) refers to dleqf.o(x$fpl$dleqf) for __aeabi_cdcmple
    sqrt_x.o(i.____softfp_sqrt$lsc) refers to _rserrno.o(.text) for __set_errno
    sqrt_x.o(i.____softfp_sqrt$lsc) refers to dsqrt_umaal.o(x$fpl$dsqrt) for _dsqrt
    sqrt_x.o(i.__sqrt$lsc) refers (Special) to usenofp.o(x$fpl$usenofp) for __I$use$fp
    sqrt_x.o(i.__sqrt$lsc) refers to dleqf.o(x$fpl$dleqf) for __aeabi_cdcmple
    sqrt_x.o(i.__sqrt$lsc) refers to _rserrno.o(.text) for __set_errno
    sqrt_x.o(i.__sqrt$lsc) refers to dsqrt_umaal.o(x$fpl$dsqrt) for _dsqrt
    __rtentry.o(.ARM.Collect$$rtentry$$00000000) refers (Special) to __rtentry2.o(.ARM.Collect$$rtentry$$0000000A) for __rt_entry_li
    __rtentry.o(.ARM.Collect$$rtentry$$00000000) refers (Special) to __rtentry2.o(.ARM.Collect$$rtentry$$0000000D) for __rt_entry_main
    __rtentry.o(.ARM.Collect$$rtentry$$00000000) refers (Special) to __rtentry2.o(.ARM.Collect$$rtentry$$0000000C) for __rt_entry_postli_1
    __rtentry.o(.ARM.Collect$$rtentry$$00000000) refers (Special) to __rtentry2.o(.ARM.Collect$$rtentry$$00000009) for __rt_entry_postsh_1
    __rtentry.o(.ARM.Collect$$rtentry$$00000000) refers (Special) to __rtentry2.o(.ARM.Collect$$rtentry$$00000002) for __rt_entry_presh_1
    __rtentry.o(.ARM.Collect$$rtentry$$00000000) refers (Special) to __rtentry4.o(.ARM.Collect$$rtentry$$00000004) for __rt_entry_sh
    _rserrno.o(.text) refers to rt_errno_addr_intlibspace.o(.text) for __aeabi_errno_addr
    _printf_fp_dec.o(.text) refers (Special) to usenofp.o(x$fpl$usenofp) for __I$use$fp
    _printf_fp_dec.o(.text) refers (Special) to lc_numeric_c.o(locale$$code) for _get_lc_numeric
    _printf_fp_dec.o(.text) refers to bigflt0.o(.text) for _btod_etento
    _printf_fp_dec.o(.text) refers to btod.o(CL$$btod_d2e) for _btod_d2e
    _printf_fp_dec.o(.text) refers to btod.o(CL$$btod_ediv) for _btod_ediv
    _printf_fp_dec.o(.text) refers to btod.o(CL$$btod_emul) for _btod_emul
    _printf_fp_dec.o(.text) refers to lludiv10.o(.text) for _ll_udiv10
    _printf_fp_dec.o(.text) refers to fpclassify.o(i.__ARM_fpclassify) for __ARM_fpclassify
    _printf_fp_dec.o(.text) refers to _printf_fp_infnan.o(.text) for _printf_fp_infnan
    _printf_fp_dec.o(.text) refers to rt_locale_intlibspace.o(.text) for __rt_locale
    _printf_fp_dec_accurate.o(.text) refers (Special) to usenofp.o(x$fpl$usenofp) for __I$use$fp
    _printf_fp_dec_accurate.o(.text) refers (Special) to lc_numeric_c.o(locale$$code) for _get_lc_numeric
    _printf_fp_dec_accurate.o(.text) refers to btod_accurate.o(.text) for _btod_main
    _printf_fp_dec_accurate.o(.text) refers to fpclassify.o(i.__ARM_fpclassify) for __ARM_fpclassify
    _printf_fp_dec_accurate.o(.text) refers to _printf_fp_infnan.o(.text) for _printf_fp_infnan
    _printf_fp_dec_accurate.o(.text) refers to rt_locale_intlibspace.o(.text) for __rt_locale
    _printf_char_common.o(.text) refers to __printf_wp.o(.text) for __printf
    strtod.o(.text) refers (Special) to lc_numeric_c.o(locale$$code) for _get_lc_numeric
    strtod.o(.text) refers to scanf1.o(x$fpl$scanf1) for _scanf_real
    strtod.o(.text) refers to _sgetc.o(.text) for _sgetc
    strtod.o(.text) refers to isspace.o(.text) for isspace
    strtok_int.o(.text) refers to strspn.o(.text) for strspn
    strtok_int.o(.text) refers to strcspn.o(.text) for strcspn
    basic.o(x$fpl$basic) refers (Special) to usenofp.o(x$fpl$usenofp) for __I$use$fp
    deqf.o(x$fpl$deqf) refers (Special) to usenofp.o(x$fpl$usenofp) for __I$use$fp
    deqf.o(x$fpl$deqf) refers to dnaninf.o(x$fpl$dnaninf) for __fpl_dnaninf
    deqf.o(x$fpl$deqf) refers to dcmpi.o(x$fpl$dcmpinf) for __fpl_dcmp_Inf
    dgeqf.o(x$fpl$dgeqf) refers (Special) to usenofp.o(x$fpl$usenofp) for __I$use$fp
    dgeqf.o(x$fpl$dgeqf) refers to dnaninf.o(x$fpl$dnaninf) for __fpl_dnaninf
    dgeqf.o(x$fpl$dgeqf) refers to dcmpi.o(x$fpl$dcmpinf) for __fpl_dcmp_Inf
    dleqf.o(x$fpl$dleqf) refers (Special) to usenofp.o(x$fpl$usenofp) for __I$use$fp
    dleqf.o(x$fpl$dleqf) refers to dnaninf.o(x$fpl$dnaninf) for __fpl_dnaninf
    dleqf.o(x$fpl$dleqf) refers to dcmpi.o(x$fpl$dcmpinf) for __fpl_dcmp_Inf
    dnaninf.o(x$fpl$dnaninf) refers (Special) to usenofp.o(x$fpl$usenofp) for __I$use$fp
    dretinf.o(x$fpl$dretinf) refers (Special) to usenofp.o(x$fpl$usenofp) for __I$use$fp
    drleqf.o(x$fpl$drleqf) refers (Special) to usenofp.o(x$fpl$usenofp) for __I$use$fp
    drleqf.o(x$fpl$drleqf) refers to dleqf.o(x$fpl$dleqf) for __fpl_dcmple_InfNaN
    dsqrt_umaal.o(x$fpl$dsqrt) refers (Special) to usenofp.o(x$fpl$usenofp) for __I$use$fp
    dsqrt_umaal.o(x$fpl$dsqrt) refers to dnaninf.o(x$fpl$dnaninf) for __fpl_dnaninf
    fnaninf.o(x$fpl$fnaninf) refers (Special) to usenofp.o(x$fpl$usenofp) for __I$use$fp
    fretinf.o(x$fpl$fretinf) refers (Special) to usenofp.o(x$fpl$usenofp) for __I$use$fp
    scalbn.o(x$fpl$scalbn) refers (Special) to usenofp.o(x$fpl$usenofp) for __I$use$fp
    scalbn.o(x$fpl$scalbn) refers to dcheck1.o(x$fpl$dcheck1) for __fpl_dcheck_NaN1
    atan.o(i.__hardfp_atan) refers (Special) to usenofp.o(x$fpl$usenofp) for __I$use$fp
    atan.o(i.__hardfp_atan) refers to dunder.o(i.__mathlib_dbl_infnan) for __mathlib_dbl_infnan
    atan.o(i.__hardfp_atan) refers to fpclassify.o(i.__ARM_fpclassify) for __ARM_fpclassify
    atan.o(i.__hardfp_atan) refers to dunder.o(i.__mathlib_dbl_underflow) for __mathlib_dbl_underflow
    atan.o(i.__hardfp_atan) refers to fabs.o(i.fabs) for fabs
    atan.o(i.__hardfp_atan) refers to daddsub_clz.o(x$fpl$dadd) for __aeabi_dadd
    atan.o(i.__hardfp_atan) refers to dmul.o(x$fpl$dmul) for __aeabi_dmul
    atan.o(i.__hardfp_atan) refers to daddsub_clz.o(x$fpl$dsub) for __aeabi_dsub
    atan.o(i.__hardfp_atan) refers to ddiv.o(x$fpl$ddiv) for __aeabi_ddiv
    atan.o(i.__hardfp_atan) refers to poly.o(i.__kernel_poly) for __kernel_poly
    atan.o(i.__hardfp_atan) refers to daddsub_clz.o(x$fpl$drsb) for __aeabi_drsub
    atan.o(i.__hardfp_atan) refers to basic.o(x$fpl$basic) for __aeabi_dneg
    atan.o(i.__hardfp_atan) refers to atan.o(.constdata) for .constdata
    atan.o(i.__softfp_atan) refers (Special) to usenofp.o(x$fpl$usenofp) for __I$use$fp
    atan.o(i.__softfp_atan) refers to atan.o(i.__hardfp_atan) for __hardfp_atan
    atan.o(i.atan) refers (Special) to usenofp.o(x$fpl$usenofp) for __I$use$fp
    atan.o(i.atan) refers to atan.o(i.__hardfp_atan) for __hardfp_atan
    atan.o(.constdata) refers (Special) to usenofp.o(x$fpl$usenofp) for __I$use$fp
    atan_x.o(i.____hardfp_atan$lsc) refers (Special) to usenofp.o(x$fpl$usenofp) for __I$use$fp
    atan_x.o(i.____hardfp_atan$lsc) refers to dunder.o(i.__mathlib_dbl_infnan) for __mathlib_dbl_infnan
    atan_x.o(i.____hardfp_atan$lsc) refers to fabs.o(i.fabs) for fabs
    atan_x.o(i.____hardfp_atan$lsc) refers to daddsub_clz.o(x$fpl$dadd) for __aeabi_dadd
    atan_x.o(i.____hardfp_atan$lsc) refers to dmul.o(x$fpl$dmul) for __aeabi_dmul
    atan_x.o(i.____hardfp_atan$lsc) refers to daddsub_clz.o(x$fpl$dsub) for __aeabi_dsub
    atan_x.o(i.____hardfp_atan$lsc) refers to ddiv.o(x$fpl$ddiv) for __aeabi_ddiv
    atan_x.o(i.____hardfp_atan$lsc) refers to poly.o(i.__kernel_poly) for __kernel_poly
    atan_x.o(i.____hardfp_atan$lsc) refers to daddsub_clz.o(x$fpl$drsb) for __aeabi_drsub
    atan_x.o(i.____hardfp_atan$lsc) refers to basic.o(x$fpl$basic) for __aeabi_dneg
    atan_x.o(i.____hardfp_atan$lsc) refers to atan_x.o(.constdata) for .constdata
    atan_x.o(i.____softfp_atan$lsc) refers (Special) to usenofp.o(x$fpl$usenofp) for __I$use$fp
    atan_x.o(i.____softfp_atan$lsc) refers to atan_x.o(i.____hardfp_atan$lsc) for ____hardfp_atan$lsc
    atan_x.o(i.__atan$lsc) refers (Special) to usenofp.o(x$fpl$usenofp) for __I$use$fp
    atan_x.o(i.__atan$lsc) refers to atan_x.o(i.____hardfp_atan$lsc) for ____hardfp_atan$lsc
    atan_x.o(.constdata) refers (Special) to usenofp.o(x$fpl$usenofp) for __I$use$fp
    cos_i.o(i.__kernel_cos) refers (Special) to usenofp.o(x$fpl$usenofp) for __I$use$fp
    cos_i.o(i.__kernel_cos) refers to dfix.o(x$fpl$dfix) for __aeabi_d2iz
    cos_i.o(i.__kernel_cos) refers to dmul.o(x$fpl$dmul) for __aeabi_dmul
    cos_i.o(i.__kernel_cos) refers to poly.o(i.__kernel_poly) for __kernel_poly
    cos_i.o(i.__kernel_cos) refers to daddsub_clz.o(x$fpl$dsub) for __aeabi_dsub
    cos_i.o(i.__kernel_cos) refers to daddsub_clz.o(x$fpl$drsb) for __aeabi_drsub
    cos_i.o(i.__kernel_cos) refers to cos_i.o(.constdata) for .constdata
    cos_i.o(.constdata) refers (Special) to usenofp.o(x$fpl$usenofp) for __I$use$fp
    dunder.o(i.__mathlib_dbl_divzero) refers to ddiv.o(x$fpl$ddiv) for __aeabi_ddiv
    dunder.o(i.__mathlib_dbl_infnan) refers to daddsub_clz.o(x$fpl$dadd) for __aeabi_dadd
    dunder.o(i.__mathlib_dbl_infnan2) refers to daddsub_clz.o(x$fpl$dadd) for __aeabi_dadd
    dunder.o(i.__mathlib_dbl_invalid) refers to ddiv.o(x$fpl$ddiv) for __aeabi_ddiv
    dunder.o(i.__mathlib_dbl_overflow) refers to dmul.o(x$fpl$dmul) for __aeabi_dmul
    dunder.o(i.__mathlib_dbl_posinfnan) refers to dmul.o(x$fpl$dmul) for __aeabi_dmul
    dunder.o(i.__mathlib_dbl_underflow) refers to dmul.o(x$fpl$dmul) for __aeabi_dmul
    fabs.o(i.__hardfp_fabs) refers (Special) to usenofp.o(x$fpl$usenofp) for __I$use$fp
    fabs.o(i.__softfp_fabs) refers (Special) to usenofp.o(x$fpl$usenofp) for __I$use$fp
    fabs.o(i.fabs) refers (Special) to usenofp.o(x$fpl$usenofp) for __I$use$fp
    fpclassify.o(i.__ARM_fpclassify) refers (Special) to usenofp.o(x$fpl$usenofp) for __I$use$fp
    poly.o(i.__kernel_poly) refers (Special) to usenofp.o(x$fpl$usenofp) for __I$use$fp
    poly.o(i.__kernel_poly) refers to dmul.o(x$fpl$dmul) for __aeabi_dmul
    poly.o(i.__kernel_poly) refers to daddsub_clz.o(x$fpl$dadd) for __aeabi_dadd
    qnan.o(.constdata) refers (Special) to usenofp.o(x$fpl$usenofp) for __I$use$fp
    rred.o(i.__ieee754_rem_pio2) refers (Special) to usenofp.o(x$fpl$usenofp) for __I$use$fp
    rred.o(i.__ieee754_rem_pio2) refers to daddsub_clz.o(x$fpl$dsub) for __aeabi_dsub
    rred.o(i.__ieee754_rem_pio2) refers to daddsub_clz.o(x$fpl$dadd) for __aeabi_dadd
    rred.o(i.__ieee754_rem_pio2) refers to fabs.o(i.fabs) for fabs
    rred.o(i.__ieee754_rem_pio2) refers to dmul.o(x$fpl$dmul) for __aeabi_dmul
    rred.o(i.__ieee754_rem_pio2) refers to dfix.o(x$fpl$dfix) for __aeabi_d2iz
    rred.o(i.__ieee754_rem_pio2) refers to dflt_clz.o(x$fpl$dflt) for __aeabi_i2d
    rred.o(i.__ieee754_rem_pio2) refers to daddsub_clz.o(x$fpl$drsb) for __aeabi_drsub
    rred.o(i.__ieee754_rem_pio2) refers to basic.o(x$fpl$basic) for __aeabi_dneg
    rred.o(i.__ieee754_rem_pio2) refers to dflt_clz.o(x$fpl$dfltu) for __aeabi_ui2d
    rred.o(i.__ieee754_rem_pio2) refers to rred.o(.constdata) for .constdata
    rred.o(i.__use_accurate_range_reduction) refers (Special) to usenofp.o(x$fpl$usenofp) for __I$use$fp
    rred.o(.constdata) refers (Special) to usenofp.o(x$fpl$usenofp) for __I$use$fp
    sin_i.o(i.__kernel_sin) refers (Special) to usenofp.o(x$fpl$usenofp) for __I$use$fp
    sin_i.o(i.__kernel_sin) refers to fpclassify.o(i.__ARM_fpclassify) for __ARM_fpclassify
    sin_i.o(i.__kernel_sin) refers to dunder.o(i.__mathlib_dbl_underflow) for __mathlib_dbl_underflow
    sin_i.o(i.__kernel_sin) refers to dmul.o(x$fpl$dmul) for __aeabi_dmul
    sin_i.o(i.__kernel_sin) refers to poly.o(i.__kernel_poly) for __kernel_poly
    sin_i.o(i.__kernel_sin) refers to daddsub_clz.o(x$fpl$dsub) for __aeabi_dsub
    sin_i.o(i.__kernel_sin) refers to daddsub_clz.o(x$fpl$drsb) for __aeabi_drsub
    sin_i.o(i.__kernel_sin) refers to daddsub_clz.o(x$fpl$dadd) for __aeabi_dadd
    sin_i.o(i.__kernel_sin) refers to sin_i.o(.constdata) for .constdata
    sin_i.o(.constdata) refers (Special) to usenofp.o(x$fpl$usenofp) for __I$use$fp
    sin_i_x.o(i.____kernel_sin$lsc) refers (Special) to usenofp.o(x$fpl$usenofp) for __I$use$fp
    sin_i_x.o(i.____kernel_sin$lsc) refers to dmul.o(x$fpl$dmul) for __aeabi_dmul
    sin_i_x.o(i.____kernel_sin$lsc) refers to poly.o(i.__kernel_poly) for __kernel_poly
    sin_i_x.o(i.____kernel_sin$lsc) refers to daddsub_clz.o(x$fpl$dsub) for __aeabi_dsub
    sin_i_x.o(i.____kernel_sin$lsc) refers to daddsub_clz.o(x$fpl$drsb) for __aeabi_drsub
    sin_i_x.o(i.____kernel_sin$lsc) refers to daddsub_clz.o(x$fpl$dadd) for __aeabi_dadd
    sin_i_x.o(i.____kernel_sin$lsc) refers to sin_i_x.o(.constdata) for .constdata
    sin_i_x.o(.constdata) refers (Special) to usenofp.o(x$fpl$usenofp) for __I$use$fp
    __rtentry2.o(.ARM.Collect$$rtentry$$00000008) refers to boardinit2.o(.text) for _platform_post_stackheap_init
    __rtentry2.o(.ARM.Collect$$rtentry$$0000000A) refers to libinit.o(.ARM.Collect$$libinit$$00000000) for __rt_lib_init
    __rtentry2.o(.ARM.Collect$$rtentry$$0000000B) refers to boardinit3.o(.text) for _platform_post_lib_init
    __rtentry2.o(.ARM.Collect$$rtentry$$0000000D) refers to main.o(.text.main) for main
    __rtentry2.o(.ARM.Collect$$rtentry$$0000000D) refers to exit.o(.text) for exit
    __rtentry2.o(.ARM.exidx) refers to __rtentry2.o(.ARM.Collect$$rtentry$$00000001) for .ARM.Collect$$rtentry$$00000001
    __rtentry2.o(.ARM.exidx) refers to __rtentry2.o(.ARM.Collect$$rtentry$$00000008) for .ARM.Collect$$rtentry$$00000008
    __rtentry2.o(.ARM.exidx) refers to __rtentry2.o(.ARM.Collect$$rtentry$$0000000A) for .ARM.Collect$$rtentry$$0000000A
    __rtentry2.o(.ARM.exidx) refers to __rtentry2.o(.ARM.Collect$$rtentry$$0000000B) for .ARM.Collect$$rtentry$$0000000B
    __rtentry2.o(.ARM.exidx) refers to __rtentry2.o(.ARM.Collect$$rtentry$$0000000D) for .ARM.Collect$$rtentry$$0000000D
    __rtentry4.o(.ARM.Collect$$rtentry$$00000004) refers to sys_stackheap_outer.o(.text) for __user_setup_stackheap
    __rtentry4.o(.ARM.exidx) refers to __rtentry4.o(.ARM.Collect$$rtentry$$00000004) for .ARM.Collect$$rtentry$$00000004
    rt_locale.o(.text) refers to rt_locale.o(.bss) for __rt_locale_data
    rt_locale_intlibspace.o(.text) refers to libspace.o(.bss) for __libspace_start
    rt_errno_addr.o(.text) refers to rt_errno_addr.o(.bss) for __aeabi_errno_addr_data
    rt_errno_addr_intlibspace.o(.text) refers to libspace.o(.bss) for __libspace_start
    isspace.o(.text) refers to rt_ctype_table.o(.text) for __rt_ctype_table
    bigflt0.o(.text) refers (Special) to usenofp.o(x$fpl$usenofp) for __I$use$fp
    bigflt0.o(.text) refers to btod.o(CL$$btod_emul) for _btod_emul
    bigflt0.o(.text) refers to btod.o(CL$$btod_ediv) for _btod_ediv
    bigflt0.o(.text) refers to bigflt0.o(.constdata) for .constdata
    bigflt0.o(.constdata) refers (Special) to usenofp.o(x$fpl$usenofp) for __I$use$fp
    btod.o(CL$$btod_d2e) refers (Special) to usenofp.o(x$fpl$usenofp) for __I$use$fp
    btod.o(CL$$btod_d2e) refers to btod.o(CL$$btod_d2e_norm_op1) for _d2e_norm_op1
    btod.o(CL$$btod_d2e_norm_op1) refers (Special) to usenofp.o(x$fpl$usenofp) for __I$use$fp
    btod.o(CL$$btod_d2e_norm_op1) refers to btod.o(CL$$btod_d2e_denorm_low) for _d2e_denorm_low
    btod.o(CL$$btod_d2e_denorm_low) refers (Special) to usenofp.o(x$fpl$usenofp) for __I$use$fp
    btod.o(CL$$btod_emul) refers (Special) to usenofp.o(x$fpl$usenofp) for __I$use$fp
    btod.o(CL$$btod_emul) refers to btod.o(CL$$btod_mult_common) for __btod_mult_common
    btod.o(CL$$btod_emul) refers to btod.o(CL$$btod_e2e) for _e2e
    btod.o(CL$$btod_ediv) refers (Special) to usenofp.o(x$fpl$usenofp) for __I$use$fp
    btod.o(CL$$btod_ediv) refers to btod.o(CL$$btod_div_common) for __btod_div_common
    btod.o(CL$$btod_ediv) refers to btod.o(CL$$btod_e2e) for _e2e
    btod.o(CL$$btod_emuld) refers (Special) to usenofp.o(x$fpl$usenofp) for __I$use$fp
    btod.o(CL$$btod_emuld) refers to btod.o(CL$$btod_mult_common) for __btod_mult_common
    btod.o(CL$$btod_emuld) refers to btod.o(CL$$btod_e2d) for _e2d
    btod.o(CL$$btod_edivd) refers (Special) to usenofp.o(x$fpl$usenofp) for __I$use$fp
    btod.o(CL$$btod_edivd) refers to btod.o(CL$$btod_div_common) for __btod_div_common
    btod.o(CL$$btod_edivd) refers to btod.o(CL$$btod_e2d) for _e2d
    btod.o(CL$$btod_e2e) refers (Special) to usenofp.o(x$fpl$usenofp) for __I$use$fp
    btod.o(CL$$btod_e2d) refers (Special) to usenofp.o(x$fpl$usenofp) for __I$use$fp
    btod.o(CL$$btod_e2d) refers to btod.o(CL$$btod_e2e) for _e2e
    btod.o(CL$$btod_mult_common) refers (Special) to usenofp.o(x$fpl$usenofp) for __I$use$fp
    btod.o(CL$$btod_div_common) refers (Special) to usenofp.o(x$fpl$usenofp) for __I$use$fp
    btod_accurate.o(.text) refers to btod_accurate_common.o(.text) for _btod_common
    lc_numeric_c.o(locale$$data) refers (Special) to libinit2.o(.ARM.Collect$$libinit$$00000016) for __rt_lib_init_lc_numeric_2
    lc_numeric_c.o(locale$$code) refers (Special) to libinit2.o(.ARM.Collect$$libinit$$00000016) for __rt_lib_init_lc_numeric_2
    lc_numeric_c.o(locale$$code) refers to strcmpv7em.o(.text) for strcmp
    lc_numeric_c.o(locale$$code) refers to lc_numeric_c.o(locale$$data) for __lcnum_c_name
    dcheck1.o(x$fpl$dcheck1) refers (Special) to usenofp.o(x$fpl$usenofp) for __I$use$fp
    dcheck1.o(x$fpl$dcheck1) refers to retnan.o(x$fpl$retnan) for __fpl_return_NaN
    dcmpi.o(x$fpl$dcmpinf) refers (Special) to usenofp.o(x$fpl$usenofp) for __I$use$fp
    dfix.o(x$fpl$dfix) refers (Special) to usenofp.o(x$fpl$usenofp) for __I$use$fp
    dfix.o(x$fpl$dfix) refers to dnaninf.o(x$fpl$dnaninf) for __fpl_dnaninf
    dfix.o(x$fpl$dfixr) refers (Special) to usenofp.o(x$fpl$usenofp) for __I$use$fp
    dfix.o(x$fpl$dfixr) refers to dnaninf.o(x$fpl$dnaninf) for __fpl_dnaninf
    istatus.o(x$fpl$ieeestatus) refers (Special) to usenofp.o(x$fpl$usenofp) for __I$use$fp
    scanf1.o(x$fpl$scanf1) refers to scanf_fp.o(.text) for _scanf_really_real
    libspace.o(.text) refers to libspace.o(.bss) for __libspace_start
    sys_stackheap_outer.o(.text) refers to libspace.o(.text) for __user_perproc_libspace
    sys_stackheap_outer.o(.text) refers to startup_tm4c123.o(.text) for __user_initial_stackheap
    rt_ctype_table.o(.text) refers to rt_locale_intlibspace.o(.text) for __rt_locale
    rt_ctype_table.o(.text) refers to lc_ctype_c.o(locale$$code) for _get_lc_ctype
    scanf_fp.o(.text) refers (Special) to usenofp.o(x$fpl$usenofp) for __I$use$fp
    scanf_fp.o(.text) refers (Special) to lc_numeric_c.o(locale$$code) for _get_lc_numeric
    scanf_fp.o(.text) refers to rt_errno_addr_intlibspace.o(.text) for __aeabi_errno_addr
    scanf_fp.o(.text) refers to istatus.o(x$fpl$ieeestatus) for __ieee_status
    scanf_fp.o(.text) refers to bigflt0.o(.text) for _btod_etento
    scanf_fp.o(.text) refers to btod.o(CL$$btod_emuld) for _btod_emuld
    scanf_fp.o(.text) refers to btod.o(CL$$btod_edivd) for _btod_edivd
    scanf_fp.o(.text) refers to rt_locale_intlibspace.o(.text) for __rt_locale
    scanf_fp.o(.text) refers to scanf2.o(x$fpl$scanf2) for _scanf_infnan
    scanf_fp.o(.text) refers to __printf_wp.o(i._is_digit) for _is_digit
    scanf_fp.o(.text) refers to fpconst.o(c$$dmax) for __dbl_max
    scanf_fp.o(.text) refers to fpconst.o(c$$dinf) for __huge_val
    scanf_fp.o(.text) refers to narrow.o(i.__mathlib_narrow) for __mathlib_narrow
    scanf_fp_accurate.o(.text) refers (Special) to usenofp.o(x$fpl$usenofp) for __I$use$fp
    scanf_fp_accurate.o(.text) refers (Special) to lc_numeric_c.o(locale$$code) for _get_lc_numeric
    scanf_fp_accurate.o(.text) refers to strlen.o(.text) for strlen
    scanf_fp_accurate.o(.text) refers to dtob_accurate.o(.text) for _dtob
    scanf_fp_accurate.o(.text) refers to rt_errno_addr_intlibspace.o(.text) for __aeabi_errno_addr
    scanf_fp_accurate.o(.text) refers to llshl.o(.text) for __aeabi_llsl
    scanf_fp_accurate.o(.text) refers to rt_locale_intlibspace.o(.text) for __rt_locale
    scanf_fp_accurate.o(.text) refers to scanf2.o(x$fpl$scanf2) for _scanf_infnan
    scanf_fp_accurate.o(.text) refers to __printf_wp.o(i._is_digit) for _is_digit
    scanf_fp_accurate.o(.text) refers to narrow.o(i.__mathlib_narrow) for __mathlib_narrow
    btod_accurate_common.o(.text) refers to llushr.o(.text) for __aeabi_llsr
    exit.o(.text) refers to rtexit.o(.ARM.Collect$$rtexit$$00000000) for __rt_exit
    libinit.o(.ARM.Collect$$libinit$$00000000) refers (Special) to libinit2.o(.ARM.Collect$$libinit$$0000002E) for __rt_lib_init_alloca_1
    libinit.o(.ARM.Collect$$libinit$$00000000) refers (Special) to libinit2.o(.ARM.Collect$$libinit$$0000002C) for __rt_lib_init_argv_1
    libinit.o(.ARM.Collect$$libinit$$00000000) refers (Special) to libinit2.o(.ARM.Collect$$libinit$$0000001B) for __rt_lib_init_atexit_1
    libinit.o(.ARM.Collect$$libinit$$00000000) refers (Special) to libinit2.o(.ARM.Collect$$libinit$$00000021) for __rt_lib_init_clock_1
    libinit.o(.ARM.Collect$$libinit$$00000000) refers (Special) to libinit2.o(.ARM.Collect$$libinit$$00000032) for __rt_lib_init_cpp_1
    libinit.o(.ARM.Collect$$libinit$$00000000) refers (Special) to libinit2.o(.ARM.Collect$$libinit$$00000030) for __rt_lib_init_exceptions_1
    libinit.o(.ARM.Collect$$libinit$$00000000) refers (Special) to libinit2.o(.ARM.Collect$$libinit$$00000001) for __rt_lib_init_fp_1
    libinit.o(.ARM.Collect$$libinit$$00000000) refers (Special) to libinit2.o(.ARM.Collect$$libinit$$0000001F) for __rt_lib_init_fp_trap_1
    libinit.o(.ARM.Collect$$libinit$$00000000) refers (Special) to libinit2.o(.ARM.Collect$$libinit$$00000023) for __rt_lib_init_getenv_1
    libinit.o(.ARM.Collect$$libinit$$00000000) refers (Special) to libinit2.o(.ARM.Collect$$libinit$$0000000A) for __rt_lib_init_heap_1
    libinit.o(.ARM.Collect$$libinit$$00000000) refers (Special) to libinit2.o(.ARM.Collect$$libinit$$00000011) for __rt_lib_init_lc_collate_1
    libinit.o(.ARM.Collect$$libinit$$00000000) refers (Special) to libinit2.o(.ARM.Collect$$libinit$$00000013) for __rt_lib_init_lc_ctype_1
    libinit.o(.ARM.Collect$$libinit$$00000000) refers (Special) to libinit2.o(.ARM.Collect$$libinit$$00000015) for __rt_lib_init_lc_monetary_1
    libinit.o(.ARM.Collect$$libinit$$00000000) refers (Special) to libinit2.o(.ARM.Collect$$libinit$$00000017) for __rt_lib_init_lc_numeric_1
    libinit.o(.ARM.Collect$$libinit$$00000000) refers (Special) to libinit2.o(.ARM.Collect$$libinit$$00000019) for __rt_lib_init_lc_time_1
    libinit.o(.ARM.Collect$$libinit$$00000000) refers (Special) to libinit2.o(.ARM.Collect$$libinit$$00000004) for __rt_lib_init_preinit_1
    libinit.o(.ARM.Collect$$libinit$$00000000) refers (Special) to libinit2.o(.ARM.Collect$$libinit$$0000000E) for __rt_lib_init_rand_1
    libinit.o(.ARM.Collect$$libinit$$00000000) refers (Special) to libinit2.o(.ARM.Collect$$libinit$$00000033) for __rt_lib_init_return
    libinit.o(.ARM.Collect$$libinit$$00000000) refers (Special) to libinit2.o(.ARM.Collect$$libinit$$0000001D) for __rt_lib_init_signal_1
    libinit.o(.ARM.Collect$$libinit$$00000000) refers (Special) to libinit2.o(.ARM.Collect$$libinit$$00000025) for __rt_lib_init_stdio_1
    libinit.o(.ARM.Collect$$libinit$$00000000) refers (Special) to libinit2.o(.ARM.Collect$$libinit$$0000000C) for __rt_lib_init_user_alloc_1
    libinit2.o(.ARM.Collect$$libinit$$00000001) refers to fpinit.o(x$fpl$fpinit) for _fp_init
    libinit2.o(.ARM.Collect$$libinit$$0000000F) refers (Weak) to rt_locale_intlibspace.o(.text) for __rt_locale
    libinit2.o(.ARM.Collect$$libinit$$00000010) refers to libinit2.o(.ARM.Collect$$libinit$$0000000F) for .ARM.Collect$$libinit$$0000000F
    libinit2.o(.ARM.Collect$$libinit$$00000012) refers to libinit2.o(.ARM.Collect$$libinit$$0000000F) for .ARM.Collect$$libinit$$0000000F
    libinit2.o(.ARM.Collect$$libinit$$00000012) refers (Weak) to lc_ctype_c.o(locale$$code) for _get_lc_ctype
    libinit2.o(.ARM.Collect$$libinit$$00000014) refers to libinit2.o(.ARM.Collect$$libinit$$0000000F) for .ARM.Collect$$libinit$$0000000F
    libinit2.o(.ARM.Collect$$libinit$$00000016) refers to libinit2.o(.ARM.Collect$$libinit$$0000000F) for .ARM.Collect$$libinit$$0000000F
    libinit2.o(.ARM.Collect$$libinit$$00000016) refers (Weak) to lc_numeric_c.o(locale$$code) for _get_lc_numeric
    libinit2.o(.ARM.Collect$$libinit$$00000018) refers to libinit2.o(.ARM.Collect$$libinit$$0000000F) for .ARM.Collect$$libinit$$0000000F
    libinit2.o(.ARM.Collect$$libinit$$00000026) refers to argv_veneer.o(.emb_text) for __ARM_argv_veneer
    libinit2.o(.ARM.Collect$$libinit$$00000027) refers to argv_veneer.o(.emb_text) for __ARM_argv_veneer
    retnan.o(x$fpl$retnan) refers (Special) to usenofp.o(x$fpl$usenofp) for __I$use$fp
    retnan.o(x$fpl$retnan) refers to trapv.o(x$fpl$trapveneer) for __fpl_cmpreturn
    rtexit.o(.ARM.Collect$$rtexit$$00000000) refers (Special) to rtexit2.o(.ARM.Collect$$rtexit$$00000004) for __rt_exit_exit
    rtexit.o(.ARM.Collect$$rtexit$$00000000) refers (Special) to rtexit2.o(.ARM.Collect$$rtexit$$00000003) for __rt_exit_ls
    rtexit.o(.ARM.Collect$$rtexit$$00000000) refers (Special) to rtexit2.o(.ARM.Collect$$rtexit$$00000002) for __rt_exit_prels_1
    rtexit.o(.ARM.exidx) refers (Special) to rtexit2.o(.ARM.Collect$$rtexit$$00000004) for __rt_exit_exit
    rtexit.o(.ARM.exidx) refers (Special) to rtexit2.o(.ARM.Collect$$rtexit$$00000003) for __rt_exit_ls
    rtexit.o(.ARM.exidx) refers (Special) to rtexit2.o(.ARM.Collect$$rtexit$$00000002) for __rt_exit_prels_1
    rtexit.o(.ARM.exidx) refers to rtexit.o(.ARM.Collect$$rtexit$$00000000) for .ARM.Collect$$rtexit$$00000000
    dtob_accurate.o(.text) refers to llshl.o(.text) for __aeabi_llsl
    dtob_accurate.o(.text) refers to btod_accurate_common.o(.text) for _btod_pow
    dtob_accurate.o(.text) refers to dtob_accurate.o(.constdata) for .constdata
    lc_ctype_c.o(locale$$data) refers (Special) to libinit2.o(.ARM.Collect$$libinit$$00000012) for __rt_lib_init_lc_ctype_2
    lc_ctype_c.o(locale$$code) refers (Special) to libinit2.o(.ARM.Collect$$libinit$$00000012) for __rt_lib_init_lc_ctype_2
    lc_ctype_c.o(locale$$code) refers to strcmpv7em.o(.text) for strcmp
    lc_ctype_c.o(locale$$code) refers to lc_ctype_c.o(locale$$data) for __lcctype_c_name
    argv_veneer.o(.emb_text) refers to no_argv.o(.text) for __ARM_get_argv
    fpconst.o(c$$dinf) refers (Special) to usenofp.o(x$fpl$usenofp) for __I$use$fp
    fpconst.o(c$$dnan) refers (Special) to usenofp.o(x$fpl$usenofp) for __I$use$fp
    fpconst.o(c$$finf) refers (Special) to usenofp.o(x$fpl$usenofp) for __I$use$fp
    fpconst.o(c$$dmax) refers (Special) to usenofp.o(x$fpl$usenofp) for __I$use$fp
    scanf2.o(x$fpl$scanf2) refers to scanf_hexfp.o(.text) for _scanf_really_hex_real
    scanf2.o(x$fpl$scanf2) refers to scanf_infnan.o(.text) for _scanf_really_infnan
    scanf2b.o(x$fpl$scanf2) refers to scanf_hexfp.o(.text) for _scanf_really_hex_real
    scanf2b.o(x$fpl$scanf2) refers to scanf_infnan.o(.text) for _scanf_really_infnan
    trapv.o(x$fpl$trapveneer) refers (Special) to usenofp.o(x$fpl$usenofp) for __I$use$fp
    narrow.o(i.__hardfp___mathlib_tofloat) refers (Special) to usenofp.o(x$fpl$usenofp) for __I$use$fp
    narrow.o(i.__hardfp___mathlib_tofloat) refers to frexp.o(i.frexp) for frexp
    narrow.o(i.__hardfp___mathlib_tofloat) refers to deqf.o(x$fpl$deqf) for __aeabi_cdcmpeq
    narrow.o(i.__hardfp___mathlib_tofloat) refers to d2f.o(x$fpl$d2f) for __aeabi_d2f
    narrow.o(i.__hardfp___mathlib_tofloat) refers to _rserrno.o(.text) for __set_errno
    narrow.o(i.__hardfp___mathlib_tofloat) refers to drleqf.o(x$fpl$drleqf) for __aeabi_cdrcmple
    narrow.o(i.__mathlib_narrow) refers (Special) to usenofp.o(x$fpl$usenofp) for __I$use$fp
    narrow.o(i.__mathlib_narrow) refers to narrow.o(i.__hardfp___mathlib_tofloat) for __hardfp___mathlib_tofloat
    narrow.o(i.__mathlib_tofloat) refers (Special) to usenofp.o(x$fpl$usenofp) for __I$use$fp
    narrow.o(i.__mathlib_tofloat) refers to narrow.o(i.__hardfp___mathlib_tofloat) for __hardfp___mathlib_tofloat
    narrow.o(i.__softfp___mathlib_tofloat) refers (Special) to usenofp.o(x$fpl$usenofp) for __I$use$fp
    narrow.o(i.__softfp___mathlib_tofloat) refers to narrow.o(i.__hardfp___mathlib_tofloat) for __hardfp___mathlib_tofloat
    rtexit2.o(.ARM.Collect$$rtexit$$00000003) refers to libshutdown.o(.ARM.Collect$$libshutdown$$00000000) for __rt_lib_shutdown
    rtexit2.o(.ARM.Collect$$rtexit$$00000004) refers to sys_exit.o(.text) for _sys_exit
    rtexit2.o(.ARM.exidx) refers to rtexit2.o(.ARM.Collect$$rtexit$$00000001) for .ARM.Collect$$rtexit$$00000001
    rtexit2.o(.ARM.exidx) refers to rtexit2.o(.ARM.Collect$$rtexit$$00000003) for .ARM.Collect$$rtexit$$00000003
    rtexit2.o(.ARM.exidx) refers to rtexit2.o(.ARM.Collect$$rtexit$$00000004) for .ARM.Collect$$rtexit$$00000004
    scanf_hexfp.o(.text) refers to _chval.o(.text) for _chval
    scanf_hexfp.o(.text) refers to llshl.o(.text) for __aeabi_llsl
    scanf_hexfp.o(.text) refers to ldexp.o(i.__support_ldexp) for __support_ldexp
    scanf_hexfp.o(.text) refers to narrow.o(i.__mathlib_narrow) for __mathlib_narrow
    _get_argv_nomalloc.o(.text) refers (Special) to hrguard.o(.text) for __heap_region$guard
    _get_argv_nomalloc.o(.text) refers to defsig_rtmem_outer.o(.text) for __rt_SIGRTMEM
    _get_argv_nomalloc.o(.text) refers to sys_command.o(.text) for _sys_command_string
    frexp.o(i.__hardfp_frexp) refers (Special) to usenofp.o(x$fpl$usenofp) for __I$use$fp
    frexp.o(i.__hardfp_frexp) refers to dmul.o(x$fpl$dmul) for __aeabi_dmul
    frexp.o(i.__softfp_frexp) refers (Special) to usenofp.o(x$fpl$usenofp) for __I$use$fp
    frexp.o(i.__softfp_frexp) refers to dmul.o(x$fpl$dmul) for __aeabi_dmul
    frexp.o(i.frexp) refers (Special) to usenofp.o(x$fpl$usenofp) for __I$use$fp
    frexp.o(i.frexp) refers to dmul.o(x$fpl$dmul) for __aeabi_dmul
    sys_command.o(.text) refers (Special) to use_no_semi.o(.text) for __I$use$semihosting
    sys_command.o(.text) refers (Special) to indicate_semi.o(.text) for __semihosting_library_function
    sys_exit.o(.text) refers (Special) to use_no_semi.o(.text) for __I$use$semihosting
    sys_exit.o(.text) refers (Special) to indicate_semi.o(.text) for __semihosting_library_function
    sys_command_hlt.o(.text) refers (Special) to use_no_semi.o(.text) for __I$use$semihosting
    sys_command_hlt.o(.text) refers (Special) to indicate_semi.o(.text) for __semihosting_library_function
    sys_exit_hlt.o(.text) refers (Special) to use_no_semi.o(.text) for __I$use$semihosting
    sys_exit_hlt.o(.text) refers (Special) to indicate_semi.o(.text) for __semihosting_library_function
    defsig_rtmem_outer.o(.text) refers to defsig_rtmem_inner.o(.text) for __rt_SIGRTMEM_inner
    defsig_rtmem_outer.o(.text) refers to defsig_exit.o(.text) for __sig_exit
    defsig_rtmem_formal.o(.text) refers to rt_raise.o(.text) for __rt_raise
    libshutdown.o(.ARM.Collect$$libshutdown$$00000000) refers (Special) to libshutdown2.o(.ARM.Collect$$libshutdown$$00000002) for __rt_lib_shutdown_cpp_1
    libshutdown.o(.ARM.Collect$$libshutdown$$00000000) refers (Special) to libshutdown2.o(.ARM.Collect$$libshutdown$$00000007) for __rt_lib_shutdown_fp_trap_1
    libshutdown.o(.ARM.Collect$$libshutdown$$00000000) refers (Special) to libshutdown2.o(.ARM.Collect$$libshutdown$$0000000F) for __rt_lib_shutdown_heap_1
    libshutdown.o(.ARM.Collect$$libshutdown$$00000000) refers (Special) to libshutdown2.o(.ARM.Collect$$libshutdown$$00000010) for __rt_lib_shutdown_return
    libshutdown.o(.ARM.Collect$$libshutdown$$00000000) refers (Special) to libshutdown2.o(.ARM.Collect$$libshutdown$$0000000A) for __rt_lib_shutdown_signal_1
    libshutdown.o(.ARM.Collect$$libshutdown$$00000000) refers (Special) to libshutdown2.o(.ARM.Collect$$libshutdown$$00000004) for __rt_lib_shutdown_stdio_1
    libshutdown.o(.ARM.Collect$$libshutdown$$00000000) refers (Special) to libshutdown2.o(.ARM.Collect$$libshutdown$$0000000C) for __rt_lib_shutdown_user_alloc_1
    ldexp.o(i.__hardfp_ldexp) refers (Special) to usenofp.o(x$fpl$usenofp) for __I$use$fp
    ldexp.o(i.__hardfp_ldexp) refers to deqf.o(x$fpl$deqf) for __aeabi_cdcmpeq
    ldexp.o(i.__hardfp_ldexp) refers to scalbn.o(x$fpl$scalbn) for __ARM_scalbn
    ldexp.o(i.__hardfp_ldexp) refers to _rserrno.o(.text) for __set_errno
    ldexp.o(i.__hardfp_ldexp) refers to dunder.o(i.__mathlib_dbl_underflow) for __mathlib_dbl_underflow
    ldexp.o(i.__hardfp_ldexp) refers to dunder.o(i.__mathlib_dbl_overflow) for __mathlib_dbl_overflow
    ldexp.o(i.__softfp_ldexp) refers (Special) to usenofp.o(x$fpl$usenofp) for __I$use$fp
    ldexp.o(i.__softfp_ldexp) refers to ldexp.o(i.__hardfp_ldexp) for __hardfp_ldexp
    ldexp.o(i.__support_ldexp) refers (Special) to usenofp.o(x$fpl$usenofp) for __I$use$fp
    ldexp.o(i.__support_ldexp) refers to ldexp.o(i.__hardfp_ldexp) for __hardfp_ldexp
    ldexp.o(i.ldexp) refers (Special) to usenofp.o(x$fpl$usenofp) for __I$use$fp
    ldexp.o(i.ldexp) refers to ldexp.o(i.__hardfp_ldexp) for __hardfp_ldexp
    ldexp_x.o(i.____hardfp_ldexp$lsc) refers (Special) to usenofp.o(x$fpl$usenofp) for __I$use$fp
    ldexp_x.o(i.____hardfp_ldexp$lsc) refers to deqf.o(x$fpl$deqf) for __aeabi_cdcmpeq
    ldexp_x.o(i.____hardfp_ldexp$lsc) refers to scalbn.o(x$fpl$scalbn) for __ARM_scalbn
    ldexp_x.o(i.____hardfp_ldexp$lsc) refers to _rserrno.o(.text) for __set_errno
    ldexp_x.o(i.____hardfp_ldexp$lsc) refers to qnan.o(.constdata) for __mathlib_zero
    ldexp_x.o(i.____softfp_ldexp$lsc) refers (Special) to usenofp.o(x$fpl$usenofp) for __I$use$fp
    ldexp_x.o(i.____softfp_ldexp$lsc) refers to ldexp_x.o(i.____hardfp_ldexp$lsc) for ____hardfp_ldexp$lsc
    ldexp_x.o(i.____support_ldexp$lsc) refers (Special) to usenofp.o(x$fpl$usenofp) for __I$use$fp
    ldexp_x.o(i.____support_ldexp$lsc) refers to ldexp_x.o(i.____hardfp_ldexp$lsc) for ____hardfp_ldexp$lsc
    ldexp_x.o(i.__ldexp$lsc) refers (Special) to usenofp.o(x$fpl$usenofp) for __I$use$fp
    ldexp_x.o(i.__ldexp$lsc) refers to ldexp_x.o(i.____hardfp_ldexp$lsc) for ____hardfp_ldexp$lsc
    rt_raise.o(.text) refers to __raise.o(.text) for __raise
    rt_raise.o(.text) refers to sys_exit.o(.text) for _sys_exit
    defsig_exit.o(.text) refers to sys_exit.o(.text) for _sys_exit
    defsig_rtmem_inner.o(.text) refers to defsig_general.o(.text) for __default_signal_display
    __raise.o(.text) refers to defsig.o(CL$$defsig) for __default_signal_handler
    defsig_general.o(.text) refers to sys_wrch.o(.text) for _ttywrch
    sys_wrch.o(.text) refers (Special) to use_no_semi.o(.text) for __I$use$semihosting
    sys_wrch.o(.text) refers (Special) to indicate_semi.o(.text) for __semihosting_library_function
    sys_wrch_hlt.o(.text) refers (Special) to use_no_semi.o(.text) for __I$use$semihosting
    sys_wrch_hlt.o(.text) refers (Special) to indicate_semi.o(.text) for __semihosting_library_function
    defsig.o(CL$$defsig) refers to defsig_rtmem_inner.o(.text) for __rt_SIGRTMEM_inner
    defsig_abrt_inner.o(.text) refers to defsig_general.o(.text) for __default_signal_display
    defsig_fpe_inner.o(.text) refers to defsig_general.o(.text) for __default_signal_display
    defsig_rtred_inner.o(.text) refers to defsig_general.o(.text) for __default_signal_display
    defsig_stak_inner.o(.text) refers to defsig_general.o(.text) for __default_signal_display
    defsig_pvfn_inner.o(.text) refers to defsig_general.o(.text) for __default_signal_display
    defsig_cppl_inner.o(.text) refers to defsig_general.o(.text) for __default_signal_display
    defsig_segv_inner.o(.text) refers to defsig_general.o(.text) for __default_signal_display
    defsig_other.o(.text) refers to defsig_general.o(.text) for __default_signal_display


==============================================================================

Removing Unused input sections from the image.

    Removing main.o(.text), (0 bytes).
    Removing main.o(.ARM.exidx.text.main), (8 bytes).
    Removing main.o(.ARM.use_no_argv), (4 bytes).
    Removing eeprom_programme.o(.text), (0 bytes).
    Removing eeprom_programme.o(.ARM.exidx.text.MCAL_EEPROM_INIT), (8 bytes).
    Removing eeprom_programme.o(.ARM.exidx.text.MCAL_EEPROM_Software_Reset), (8 bytes).
    Removing eeprom_programme.o(.ARM.exidx.text.MCAL_EEPROM_Fix_Error), (8 bytes).
    Removing eeprom_programme.o(.text.delay), (2 bytes).
    Removing eeprom_programme.o(.ARM.exidx.text.delay), (8 bytes).
    Removing eeprom_programme.o(.ARM.exidx.text.MCAL_EEPROM_Config_BlockOffset), (8 bytes).
    Removing eeprom_programme.o(.ARM.exidx.text.MCAL_EEPROM_Read), (8 bytes).
    Removing eeprom_programme.o(.ARM.exidx.text.MCAL_EEPROM_Write), (8 bytes).
    Removing eeprom_programme.o(.text.MCAL_EEPROM_Mass_Erase), (34 bytes).
    Removing eeprom_programme.o(.ARM.exidx.text.MCAL_EEPROM_Mass_Erase), (8 bytes).
    Removing gpio_proggramm.o(.text), (0 bytes).
    Removing gpio_proggramm.o(.ARM.exidx.text.MCAL_GPIO_INIT), (8 bytes).
    Removing gpio_proggramm.o(.ARM.exidx.text.MCAL_GPIO_SetPinMode), (8 bytes).
    Removing gpio_proggramm.o(.ARM.exidx.text.MCAL_GPIO_SetPinValue), (8 bytes).
    Removing gpio_proggramm.o(.ARM.exidx.text.MCAL_GPIO_GetPinValue), (8 bytes).
    Removing stk_program.o(.text), (0 bytes).
    Removing stk_program.o(.ARM.exidx.text.STK_wait), (8 bytes).
    Removing stk_program.o(.ARM.exidx.text.MCAL_STK_Delay_ms), (8 bytes).
    Removing stk_program.o(.text.MCAL_STK_Reset), (32 bytes).
    Removing stk_program.o(.ARM.exidx.text.MCAL_STK_Reset), (8 bytes).
    Removing stk_program.o(.text.MCAL_STK_GetRemainingCounts), (12 bytes).
    Removing stk_program.o(.ARM.exidx.text.MCAL_STK_GetRemainingCounts), (8 bytes).
    Removing stk_program.o(.text.MCAL_STK_GetElapsedCounts), (36 bytes).
    Removing stk_program.o(.ARM.exidx.text.MCAL_STK_GetElapsedCounts), (8 bytes).
    Removing stk_program.o(.text.MCAL_STK_SetBusyWait), (54 bytes).
    Removing stk_program.o(.ARM.exidx.text.MCAL_STK_SetBusyWait), (8 bytes).
    Removing stk_program.o(.bss.MCAL_STK_GetElapsedCounts.Local_PreviousValue), (4 bytes).
    Removing uart_src.o(.text), (0 bytes).
    Removing uart_src.o(.ARM.exidx.text.MCAL_UART_Init), (8 bytes).
    Removing uart_src.o(.ARM.exidx.text.UART_GPIO_RCC), (8 bytes).
    Removing uart_src.o(.ARM.exidx.text.MCAL_UART_Send_Byte_Poll), (8 bytes).
    Removing uart_src.o(.ARM.exidx.text.MCAL_UART_Receive_Byte_Poll), (8 bytes).
    Removing uart_src.o(.text.MCAL_UART_Send_Byte_IT), (6 bytes).
    Removing uart_src.o(.ARM.exidx.text.MCAL_UART_Send_Byte_IT), (8 bytes).
    Removing uart_src.o(.text.MCAL_UART_Receive_Byte_IT), (8 bytes).
    Removing uart_src.o(.ARM.exidx.text.MCAL_UART_Receive_Byte_IT), (8 bytes).
    Removing uart_src.o(.ARM.exidx.text.MCAL_UART_Send_String), (8 bytes).
    Removing uart_src.o(.text.MCAL_UART_Receive_String), (2 bytes).
    Removing uart_src.o(.ARM.exidx.text.MCAL_UART_Receive_String), (8 bytes).
    Removing gps.o(.text), (0 bytes).
    Removing gps.o(.ARM.exidx.text.parse_GPS_data), (8 bytes).
    Removing gps.o(.ARM.exidx.text.HAL_GPS_Read), (8 bytes).
    Removing lcd.o(.text), (0 bytes).
    Removing lcd.o(.ARM.exidx.text.delay_ms), (8 bytes).
    Removing lcd.o(.ARM.exidx.text.HAL_LCD_Init), (8 bytes).
    Removing lcd.o(.ARM.exidx.text.HAL_LCD_Send_CMD), (8 bytes).
    Removing lcd.o(.ARM.exidx.text.HAL_LCD_Send_Char), (8 bytes).
    Removing lcd.o(.ARM.exidx.text.HAL_LCD_Send_String), (8 bytes).
    Removing lcd.o(.ARM.exidx.text.HAL_LCD_Send_Number), (8 bytes).
    Removing lcd.o(.ARM.exidx.text.HAL_LCD_Clear), (8 bytes).
    Removing lcd.o(.ARM.exidx.text.HAL_LCD_XY), (8 bytes).
    Removing lcd.o(.ARM.exidx.text.LCD_DATA_CTRL_Init), (8 bytes).
    Removing lcd.o(.ARM.exidx.text.RS_RESET), (8 bytes).
    Removing lcd.o(.ARM.exidx.text.RW_RESET), (8 bytes).
    Removing lcd.o(.ARM.exidx.text.E_SET), (8 bytes).
    Removing lcd.o(.ARM.exidx.text.E_RESET), (8 bytes).
    Removing lcd.o(.ARM.exidx.text.RS_SET), (8 bytes).
    Removing led.o(.text), (0 bytes).
    Removing led.o(.ARM.exidx.text.HAL_LEDS_INIT), (8 bytes).
    Removing led.o(.ARM.exidx.text.HAL_LED_SET), (8 bytes).
    Removing led.o(.text.HAL_LED_RESET), (20 bytes).
    Removing led.o(.ARM.exidx.text.HAL_LED_RESET), (8 bytes).
    Removing led.o(.text.HAL_LED_TOGGLE), (56 bytes).
    Removing led.o(.ARM.exidx.text.HAL_LED_TOGGLE), (8 bytes).
    Removing switch.o(.text), (0 bytes).
    Removing switch.o(.text.HAL_SWITCH_INIT), (44 bytes).
    Removing switch.o(.ARM.exidx.text.HAL_SWITCH_INIT), (8 bytes).
    Removing switch.o(.ARM.exidx.text.HAL_SWITCH_GET), (8 bytes).
    Removing app.o(.text), (0 bytes).
    Removing app.o(.ARM.exidx.text.APP_To_Degree), (8 bytes).
    Removing app.o(.ARM.exidx.text.APP_To_Radian), (8 bytes).
    Removing app.o(.ARM.exidx.text.APP_Compute_Distance), (8 bytes).
    Removing app.o(.ARM.exidx.text.APP_Float_To_Int), (8 bytes).
    Removing app.o(.text.APP_Int_To_Float), (24 bytes).
    Removing app.o(.ARM.exidx.text.APP_Int_To_Float), (8 bytes).
    Removing app.o(.ARM.exidx.text.APP_Write_Point), (8 bytes).
    Removing app.o(.ARM.exidx.text.APP_Read_Point), (8 bytes).
    Removing app.o(.ARM.exidx.text.APP_UART_INIT), (8 bytes).
    Removing app.o(.ARM.exidx.text.APP_Send_Sentences), (8 bytes).
    Removing app.o(.ARM.exidx.text.APP_LCD_Write), (8 bytes).
    Removing app.o(.text.APP_LCD_Write_Number), (28 bytes).
    Removing app.o(.ARM.exidx.text.APP_LCD_Write_Number), (8 bytes).
    Removing app.o(.ARM.exidx.text.APP_LCD_Clear_Write), (8 bytes).
    Removing app.o(.ARM.exidx.text.APP_Prompt_Dump_Read), (8 bytes).
    Removing app.o(.ARM.exidx.text.APP_Destination_Reached), (8 bytes).
    Removing app.o(.ARM.exidx.text.APP_System_Init), (8 bytes).
    Removing system_tm4c123.o(.text), (0 bytes).
    Removing system_tm4c123.o(.text.SystemCoreClockUpdate), (148 bytes).
    Removing system_tm4c123.o(.ARM.exidx.text.SystemCoreClockUpdate), (8 bytes).
    Removing system_tm4c123.o(.text.getOscClk), (56 bytes).
    Removing system_tm4c123.o(.ARM.exidx.text.getOscClk), (8 bytes).
    Removing system_tm4c123.o(.ARM.exidx.text.SystemInit), (8 bytes).
    Removing system_tm4c123.o(.data.SystemCoreClock), (4 bytes).
    Removing system_tm4c123.o(.rodata..Lswitch.table.getOscClk), (92 bytes).

98 unused section(s) (total 1202 bytes) removed from the image.

==============================================================================

Image Symbol Table

    Local Symbols

    Symbol Name                              Value     Ov Type        Size  Object(Section)

    ../clib/angel/boardlib.s                 0x00000000   Number         0  boardinit1.o ABSOLUTE
    ../clib/angel/boardlib.s                 0x00000000   Number         0  boardinit2.o ABSOLUTE
    ../clib/angel/boardlib.s                 0x00000000   Number         0  boardinit3.o ABSOLUTE
    ../clib/angel/boardlib.s                 0x00000000   Number         0  boardshut.o ABSOLUTE
    ../clib/angel/handlers.s                 0x00000000   Number         0  __scatter_copy.o ABSOLUTE
    ../clib/angel/handlers.s                 0x00000000   Number         0  __scatter_zi.o ABSOLUTE
    ../clib/angel/kernel.s                   0x00000000   Number         0  __rtentry.o ABSOLUTE
    ../clib/angel/kernel.s                   0x00000000   Number         0  __rtentry2.o ABSOLUTE
    ../clib/angel/kernel.s                   0x00000000   Number         0  __rtentry4.o ABSOLUTE
    ../clib/angel/kernel.s                   0x00000000   Number         0  rtexit.o ABSOLUTE
    ../clib/angel/kernel.s                   0x00000000   Number         0  rtexit2.o ABSOLUTE
    ../clib/angel/rt.s                       0x00000000   Number         0  rt_locale.o ABSOLUTE
    ../clib/angel/rt.s                       0x00000000   Number         0  rt_locale_intlibspace.o ABSOLUTE
    ../clib/angel/rt.s                       0x00000000   Number         0  rt_errno_addr.o ABSOLUTE
    ../clib/angel/rt.s                       0x00000000   Number         0  rt_errno_addr_intlibspace.o ABSOLUTE
    ../clib/angel/rt.s                       0x00000000   Number         0  rt_ctype_table.o ABSOLUTE
    ../clib/angel/rt.s                       0x00000000   Number         0  rt_raise.o ABSOLUTE
    ../clib/angel/scatter.s                  0x00000000   Number         0  __scatter.o ABSOLUTE
    ../clib/angel/startup.s                  0x00000000   Number         0  __main.o ABSOLUTE
    ../clib/angel/sys.s                      0x00000000   Number         0  libspace.o ABSOLUTE
    ../clib/angel/sys.s                      0x00000000   Number         0  sys_stackheap_outer.o ABSOLUTE
    ../clib/angel/sys.s                      0x00000000   Number         0  use_no_semi.o ABSOLUTE
    ../clib/angel/sys.s                      0x00000000   Number         0  indicate_semi.o ABSOLUTE
    ../clib/angel/sysapp.c                   0x00000000   Number         0  sys_command.o ABSOLUTE
    ../clib/angel/sysapp.c                   0x00000000   Number         0  sys_exit.o ABSOLUTE
    ../clib/angel/sysapp.c                   0x00000000   Number         0  sys_command_hlt.o ABSOLUTE
    ../clib/angel/sysapp.c                   0x00000000   Number         0  sys_exit_hlt.o ABSOLUTE
    ../clib/angel/sysapp.c                   0x00000000   Number         0  sys_wrch.o ABSOLUTE
    ../clib/angel/sysapp.c                   0x00000000   Number         0  sys_wrch_hlt.o ABSOLUTE
    ../clib/armsys.c                         0x00000000   Number         0  argv_veneer.o ABSOLUTE
    ../clib/armsys.c                         0x00000000   Number         0  argv_veneer.o ABSOLUTE
    ../clib/armsys.c                         0x00000000   Number         0  _get_argv_nomalloc.o ABSOLUTE
    ../clib/armsys.c                         0x00000000   Number         0  no_argv.o ABSOLUTE
    ../clib/bigflt.c                         0x00000000   Number         0  bigflt0.o ABSOLUTE
    ../clib/btod.s                           0x00000000   Number         0  btod.o ABSOLUTE
    ../clib/btod_accurate.c                  0x00000000   Number         0  btod_accurate.o ABSOLUTE
    ../clib/btod_accurate.c                  0x00000000   Number         0  btod_accurate_common.o ABSOLUTE
    ../clib/btod_accurate.c                  0x00000000   Number         0  dtob_accurate.o ABSOLUTE
    ../clib/ctype.c                          0x00000000   Number         0  isspace.o ABSOLUTE
    ../clib/fenv.c                           0x00000000   Number         0  _rserrno.o ABSOLUTE
    ../clib/heapalloc.c                      0x00000000   Number         0  hrguard.o ABSOLUTE
    ../clib/heapaux.c                        0x00000000   Number         0  heapauxi.o ABSOLUTE
    ../clib/libinit.s                        0x00000000   Number         0  libinit.o ABSOLUTE
    ../clib/libinit.s                        0x00000000   Number         0  libinit2.o ABSOLUTE
    ../clib/libinit.s                        0x00000000   Number         0  libshutdown.o ABSOLUTE
    ../clib/libinit.s                        0x00000000   Number         0  libshutdown2.o ABSOLUTE
    ../clib/locale.s                         0x00000000   Number         0  lc_numeric_c.o ABSOLUTE
    ../clib/locale.s                         0x00000000   Number         0  lc_ctype_c.o ABSOLUTE
    ../clib/longlong.s                       0x00000000   Number         0  lludiv10.o ABSOLUTE
    ../clib/longlong.s                       0x00000000   Number         0  llshl.o ABSOLUTE
    ../clib/longlong.s                       0x00000000   Number         0  llushr.o ABSOLUTE
    ../clib/memcpset.s                       0x00000000   Number         0  strcmpv7em.o ABSOLUTE
    ../clib/misc.s                           0x00000000   Number         0  printf_stubs.o ABSOLUTE
    ../clib/printf.c                         0x00000000   Number         0  __2sprintf.o ABSOLUTE
    ../clib/printf.c                         0x00000000   Number         0  __2snprintf.o ABSOLUTE
    ../clib/printf.c                         0x00000000   Number         0  noretval__2sprintf.o ABSOLUTE
    ../clib/printf.c                         0x00000000   Number         0  noretval__2snprintf.o ABSOLUTE
    ../clib/printf.c                         0x00000000   Number         0  __printf.o ABSOLUTE
    ../clib/printf.c                         0x00000000   Number         0  _printf_dec.o ABSOLUTE
    ../clib/printf.c                         0x00000000   Number         0  __printf_flags.o ABSOLUTE
    ../clib/printf.c                         0x00000000   Number         0  __printf_ss.o ABSOLUTE
    ../clib/printf.c                         0x00000000   Number         0  __printf_flags_ss.o ABSOLUTE
    ../clib/printf.c                         0x00000000   Number         0  __printf_wp.o ABSOLUTE
    ../clib/printf.c                         0x00000000   Number         0  __printf_flags_wp.o ABSOLUTE
    ../clib/printf.c                         0x00000000   Number         0  __printf_ss_wp.o ABSOLUTE
    ../clib/printf.c                         0x00000000   Number         0  __printf_flags_ss_wp.o ABSOLUTE
    ../clib/printf.c                         0x00000000   Number         0  _printf_intcommon.o ABSOLUTE
    ../clib/printf.c                         0x00000000   Number         0  _printf_fp_dec.o ABSOLUTE
    ../clib/printf.c                         0x00000000   Number         0  _printf_fp_dec_accurate.o ABSOLUTE
    ../clib/printf.c                         0x00000000   Number         0  _printf_char_common.o ABSOLUTE
    ../clib/printf.c                         0x00000000   Number         0  _sputc.o ABSOLUTE
    ../clib/printf.c                         0x00000000   Number         0  _snputc.o ABSOLUTE
    ../clib/printf.c                         0x00000000   Number         0  _printf_fp_infnan.o ABSOLUTE
    ../clib/printf.c                         0x00000000   Number         0  __printf_nopercent.o ABSOLUTE
    ../clib/printf_percent.s                 0x00000000   Number         0  _printf_d.o ABSOLUTE
    ../clib/printf_percent.s                 0x00000000   Number         0  _printf_f.o ABSOLUTE
    ../clib/printf_percent.s                 0x00000000   Number         0  _printf_percent.o ABSOLUTE
    ../clib/printf_percent.s                 0x00000000   Number         0  _printf_percent_end.o ABSOLUTE
    ../clib/scanf.c                          0x00000000   Number         0  strtod.o ABSOLUTE
    ../clib/scanf.c                          0x00000000   Number         0  _sgetc.o ABSOLUTE
    ../clib/scanf.c                          0x00000000   Number         0  scanf_fp.o ABSOLUTE
    ../clib/scanf.c                          0x00000000   Number         0  scanf_fp_accurate.o ABSOLUTE
    ../clib/scanf.c                          0x00000000   Number         0  scanf_hexfp.o ABSOLUTE
    ../clib/scanf.c                          0x00000000   Number         0  scanf_infnan.o ABSOLUTE
    ../clib/scanf.c                          0x00000000   Number         0  _chval.o ABSOLUTE
    ../clib/signal.c                         0x00000000   Number         0  defsig_rtmem_outer.o ABSOLUTE
    ../clib/signal.c                         0x00000000   Number         0  defsig_rtmem_formal.o ABSOLUTE
    ../clib/signal.c                         0x00000000   Number         0  defsig_exit.o ABSOLUTE
    ../clib/signal.c                         0x00000000   Number         0  defsig_rtmem_inner.o ABSOLUTE
    ../clib/signal.c                         0x00000000   Number         0  __raise.o ABSOLUTE
    ../clib/signal.c                         0x00000000   Number         0  defsig_general.o ABSOLUTE
    ../clib/signal.c                         0x00000000   Number         0  defsig_abrt_inner.o ABSOLUTE
    ../clib/signal.c                         0x00000000   Number         0  defsig_fpe_inner.o ABSOLUTE
    ../clib/signal.c                         0x00000000   Number         0  defsig_rtred_inner.o ABSOLUTE
    ../clib/signal.c                         0x00000000   Number         0  defsig_stak_inner.o ABSOLUTE
    ../clib/signal.c                         0x00000000   Number         0  defsig_pvfn_inner.o ABSOLUTE
    ../clib/signal.c                         0x00000000   Number         0  defsig_cppl_inner.o ABSOLUTE
    ../clib/signal.c                         0x00000000   Number         0  defsig_segv_inner.o ABSOLUTE
    ../clib/signal.c                         0x00000000   Number         0  defsig_other.o ABSOLUTE
    ../clib/signal.s                         0x00000000   Number         0  defsig.o ABSOLUTE
    ../clib/stdlib.c                         0x00000000   Number         0  exit.o ABSOLUTE
    ../clib/string.c                         0x00000000   Number         0  strtok_r.o ABSOLUTE
    ../clib/string.c                         0x00000000   Number         0  strtok_int.o ABSOLUTE
    ../clib/string.c                         0x00000000   Number         0  strcspn.o ABSOLUTE
    ../clib/string.c                         0x00000000   Number         0  strspn.o ABSOLUTE
    ../clib/string.c                         0x00000000   Number         0  strlen.o ABSOLUTE
    ../fplib/basic.s                         0x00000000   Number         0  basic.o ABSOLUTE
    ../fplib/d2f.s                           0x00000000   Number         0  d2f.o ABSOLUTE
    ../fplib/daddsub.s                       0x00000000   Number         0  daddsub_clz.o ABSOLUTE
    ../fplib/dcheck1.s                       0x00000000   Number         0  dcheck1.o ABSOLUTE
    ../fplib/dcmp.s                          0x00000000   Number         0  dcmp.o ABSOLUTE
    ../fplib/dcmpi.s                         0x00000000   Number         0  dcmpi.o ABSOLUTE
    ../fplib/ddiv.s                          0x00000000   Number         0  ddiv.o ABSOLUTE
    ../fplib/deqf.s                          0x00000000   Number         0  deqf.o ABSOLUTE
    ../fplib/dfix.s                          0x00000000   Number         0  dfix.o ABSOLUTE
    ../fplib/dfixu.s                         0x00000000   Number         0  dfixu.o ABSOLUTE
    ../fplib/dflt.s                          0x00000000   Number         0  dflt_clz.o ABSOLUTE
    ../fplib/dgeqf.s                         0x00000000   Number         0  dgeqf.o ABSOLUTE
    ../fplib/dleqf.s                         0x00000000   Number         0  dleqf.o ABSOLUTE
    ../fplib/dmul.s                          0x00000000   Number         0  dmul.o ABSOLUTE
    ../fplib/dnaninf.s                       0x00000000   Number         0  dnaninf.o ABSOLUTE
    ../fplib/dretinf.s                       0x00000000   Number         0  dretinf.o ABSOLUTE
    ../fplib/drleqf.s                        0x00000000   Number         0  drleqf.o ABSOLUTE
    ../fplib/dsqrt.s                         0x00000000   Number         0  dsqrt_umaal.o ABSOLUTE
    ../fplib/f2d.s                           0x00000000   Number         0  f2d.o ABSOLUTE
    ../fplib/fnaninf.s                       0x00000000   Number         0  fnaninf.o ABSOLUTE
    ../fplib/fpconst.s                       0x00000000   Number         0  fpconst.o ABSOLUTE
    ../fplib/fpinit.s                        0x00000000   Number         0  fpinit.o ABSOLUTE
    ../fplib/fretinf.s                       0x00000000   Number         0  fretinf.o ABSOLUTE
    ../fplib/istatus.s                       0x00000000   Number         0  istatus.o ABSOLUTE
    ../fplib/printf1.s                       0x00000000   Number         0  printf1.o ABSOLUTE
    ../fplib/retnan.s                        0x00000000   Number         0  retnan.o ABSOLUTE
    ../fplib/scalbn.s                        0x00000000   Number         0  scalbn.o ABSOLUTE
    ../fplib/scanf1.s                        0x00000000   Number         0  scanf1.o ABSOLUTE
    ../fplib/scanf2.s                        0x00000000   Number         0  scanf2.o ABSOLUTE
    ../fplib/scanf2a.s                       0x00000000   Number         0  scanf2a.o ABSOLUTE
    ../fplib/scanf2b.s                       0x00000000   Number         0  scanf2b.o ABSOLUTE
    ../fplib/trapv.s                         0x00000000   Number         0  trapv.o ABSOLUTE
    ../fplib/usenofp.s                       0x00000000   Number         0  usenofp.o ABSOLUTE
    ../mathlib/atan.c                        0x00000000   Number         0  atan.o ABSOLUTE
    ../mathlib/atan.c                        0x00000000   Number         0  atan_x.o ABSOLUTE
    ../mathlib/atan2.c                       0x00000000   Number         0  atan2.o ABSOLUTE
    ../mathlib/atan2.c                       0x00000000   Number         0  atan2_x.o ABSOLUTE
    ../mathlib/atof.c                        0x00000000   Number         0  atof.o ABSOLUTE
    ../mathlib/cos.c                         0x00000000   Number         0  cos.o ABSOLUTE
    ../mathlib/cos.c                         0x00000000   Number         0  cos_x.o ABSOLUTE
    ../mathlib/cos_i.c                       0x00000000   Number         0  cos_i.o ABSOLUTE
    ../mathlib/dunder.c                      0x00000000   Number         0  dunder.o ABSOLUTE
    ../mathlib/fabs.c                        0x00000000   Number         0  fabs.o ABSOLUTE
    ../mathlib/fpclassify.c                  0x00000000   Number         0  fpclassify.o ABSOLUTE
    ../mathlib/frexp.c                       0x00000000   Number         0  frexp.o ABSOLUTE
    ../mathlib/ldexp.c                       0x00000000   Number         0  ldexp.o ABSOLUTE
    ../mathlib/ldexp.c                       0x00000000   Number         0  ldexp_x.o ABSOLUTE
    ../mathlib/narrow.c                      0x00000000   Number         0  narrow.o ABSOLUTE
    ../mathlib/poly.c                        0x00000000   Number         0  poly.o ABSOLUTE
    ../mathlib/pow.c                         0x00000000   Number         0  pow.o ABSOLUTE
    ../mathlib/pow.c                         0x00000000   Number         0  pow_x.o ABSOLUTE
    ../mathlib/qnan.c                        0x00000000   Number         0  qnan.o ABSOLUTE
    ../mathlib/rred.c                        0x00000000   Number         0  rred.o ABSOLUTE
    ../mathlib/sin.c                         0x00000000   Number         0  sin.o ABSOLUTE
    ../mathlib/sin.c                         0x00000000   Number         0  sin_x.o ABSOLUTE
    ../mathlib/sin_i.c                       0x00000000   Number         0  sin_i.o ABSOLUTE
    ../mathlib/sin_i.c                       0x00000000   Number         0  sin_i_x.o ABSOLUTE
    ../mathlib/sqrt.c                        0x00000000   Number         0  sqrt.o ABSOLUTE
    ../mathlib/sqrt.c                        0x00000000   Number         0  sqrt_x.o ABSOLUTE
    APP.c                                    0x00000000   Number         0  app.o ABSOLUTE
    EEPROM_Programme.c                       0x00000000   Number         0  eeprom_programme.o ABSOLUTE
    GPIO_Proggramm.c                         0x00000000   Number         0  gpio_proggramm.o ABSOLUTE
    GPS.c                                    0x00000000   Number         0  gps.o ABSOLUTE
    LCD.c                                    0x00000000   Number         0  lcd.o ABSOLUTE
    LED.c                                    0x00000000   Number         0  led.o ABSOLUTE
    RTE/Device/TM4C123GH6PM/startup_TM4C123.s 0x00000000   Number         0  startup_tm4c123.o ABSOLUTE
    STK_program.c                            0x00000000   Number         0  stk_program.o ABSOLUTE
    SWITCH.c                                 0x00000000   Number         0  switch.o ABSOLUTE
    UART_src.c                               0x00000000   Number         0  uart_src.o ABSOLUTE
    dc.s                                     0x00000000   Number         0  dc.o ABSOLUTE
    main.c                                   0x00000000   Number         0  main.o ABSOLUTE
    system_TM4C123.c                         0x00000000   Number         0  system_tm4c123.o ABSOLUTE
    RESET                                    0x00000000   Section      620  startup_tm4c123.o(RESET)
    !!!main                                  0x0000026c   Section        8  __main.o(!!!main)
    !!!scatter                               0x00000274   Section       52  __scatter.o(!!!scatter)
    !!handler_copy                           0x000002a8   Section       26  __scatter_copy.o(!!handler_copy)
    !!handler_zi                             0x000002c4   Section       28  __scatter_zi.o(!!handler_zi)
    .ARM.Collect$$_printf_percent$$00000000  0x000002e0   Section        0  _printf_percent.o(.ARM.Collect$$_printf_percent$$00000000)
    .ARM.Collect$$_printf_percent$$00000003  0x000002e0   Section        6  _printf_f.o(.ARM.Collect$$_printf_percent$$00000003)
    .ARM.Collect$$_printf_percent$$00000009  0x000002e6   Section        6  _printf_d.o(.ARM.Collect$$_printf_percent$$00000009)
    .ARM.Collect$$_printf_percent$$00000017  0x000002ec   Section        4  _printf_percent_end.o(.ARM.Collect$$_printf_percent$$00000017)
    .ARM.Collect$$libinit$$00000000          0x000002f0   Section        2  libinit.o(.ARM.Collect$$libinit$$00000000)
    .ARM.Collect$$libinit$$00000001          0x000002f2   Section        4  libinit2.o(.ARM.Collect$$libinit$$00000001)
    .ARM.Collect$$libinit$$00000004          0x000002f6   Section        0  libinit2.o(.ARM.Collect$$libinit$$00000004)
    .ARM.Collect$$libinit$$0000000A          0x000002f6   Section        0  libinit2.o(.ARM.Collect$$libinit$$0000000A)
    .ARM.Collect$$libinit$$0000000C          0x000002f6   Section        0  libinit2.o(.ARM.Collect$$libinit$$0000000C)
    .ARM.Collect$$libinit$$0000000E          0x000002f6   Section        0  libinit2.o(.ARM.Collect$$libinit$$0000000E)
    .ARM.Collect$$libinit$$0000000F          0x000002f6   Section        6  libinit2.o(.ARM.Collect$$libinit$$0000000F)
    .ARM.Collect$$libinit$$00000011          0x000002fc   Section        0  libinit2.o(.ARM.Collect$$libinit$$00000011)
    .ARM.Collect$$libinit$$00000012          0x000002fc   Section       12  libinit2.o(.ARM.Collect$$libinit$$00000012)
    .ARM.Collect$$libinit$$00000013          0x00000308   Section        0  libinit2.o(.ARM.Collect$$libinit$$00000013)
    .ARM.Collect$$libinit$$00000015          0x00000308   Section        0  libinit2.o(.ARM.Collect$$libinit$$00000015)
    .ARM.Collect$$libinit$$00000016          0x00000308   Section       10  libinit2.o(.ARM.Collect$$libinit$$00000016)
    .ARM.Collect$$libinit$$00000017          0x00000312   Section        0  libinit2.o(.ARM.Collect$$libinit$$00000017)
    .ARM.Collect$$libinit$$00000019          0x00000312   Section        0  libinit2.o(.ARM.Collect$$libinit$$00000019)
    .ARM.Collect$$libinit$$0000001B          0x00000312   Section        0  libinit2.o(.ARM.Collect$$libinit$$0000001B)
    .ARM.Collect$$libinit$$0000001D          0x00000312   Section        0  libinit2.o(.ARM.Collect$$libinit$$0000001D)
    .ARM.Collect$$libinit$$0000001F          0x00000312   Section        0  libinit2.o(.ARM.Collect$$libinit$$0000001F)
    .ARM.Collect$$libinit$$00000021          0x00000312   Section        0  libinit2.o(.ARM.Collect$$libinit$$00000021)
    .ARM.Collect$$libinit$$00000023          0x00000312   Section        0  libinit2.o(.ARM.Collect$$libinit$$00000023)
    .ARM.Collect$$libinit$$00000025          0x00000312   Section        0  libinit2.o(.ARM.Collect$$libinit$$00000025)
    .ARM.Collect$$libinit$$0000002C          0x00000312   Section        0  libinit2.o(.ARM.Collect$$libinit$$0000002C)
    .ARM.Collect$$libinit$$0000002E          0x00000312   Section        0  libinit2.o(.ARM.Collect$$libinit$$0000002E)
    .ARM.Collect$$libinit$$00000030          0x00000312   Section        0  libinit2.o(.ARM.Collect$$libinit$$00000030)
    .ARM.Collect$$libinit$$00000032          0x00000312   Section        0  libinit2.o(.ARM.Collect$$libinit$$00000032)
    .ARM.Collect$$libinit$$00000033          0x00000312   Section        2  libinit2.o(.ARM.Collect$$libinit$$00000033)
    .ARM.Collect$$libshutdown$$00000000      0x00000314   Section        2  libshutdown.o(.ARM.Collect$$libshutdown$$00000000)
    .ARM.Collect$$libshutdown$$00000002      0x00000316   Section        0  libshutdown2.o(.ARM.Collect$$libshutdown$$00000002)
    .ARM.Collect$$libshutdown$$00000004      0x00000316   Section        0  libshutdown2.o(.ARM.Collect$$libshutdown$$00000004)
    .ARM.Collect$$libshutdown$$00000007      0x00000316   Section        0  libshutdown2.o(.ARM.Collect$$libshutdown$$00000007)
    .ARM.Collect$$libshutdown$$0000000A      0x00000316   Section        0  libshutdown2.o(.ARM.Collect$$libshutdown$$0000000A)
    .ARM.Collect$$libshutdown$$0000000C      0x00000316   Section        0  libshutdown2.o(.ARM.Collect$$libshutdown$$0000000C)
    .ARM.Collect$$libshutdown$$0000000F      0x00000316   Section        0  libshutdown2.o(.ARM.Collect$$libshutdown$$0000000F)
    .ARM.Collect$$libshutdown$$00000010      0x00000316   Section        2  libshutdown2.o(.ARM.Collect$$libshutdown$$00000010)
    .ARM.Collect$$rtentry$$00000000          0x00000318   Section        0  __rtentry.o(.ARM.Collect$$rtentry$$00000000)
    .ARM.Collect$$rtentry$$00000002          0x00000318   Section        0  __rtentry2.o(.ARM.Collect$$rtentry$$00000002)
    .ARM.Collect$$rtentry$$00000004          0x00000318   Section        6  __rtentry4.o(.ARM.Collect$$rtentry$$00000004)
    .ARM.Collect$$rtentry$$00000009          0x0000031e   Section        0  __rtentry2.o(.ARM.Collect$$rtentry$$00000009)
    .ARM.Collect$$rtentry$$0000000A          0x0000031e   Section        4  __rtentry2.o(.ARM.Collect$$rtentry$$0000000A)
    .ARM.Collect$$rtentry$$0000000C          0x00000322   Section        0  __rtentry2.o(.ARM.Collect$$rtentry$$0000000C)
    .ARM.Collect$$rtentry$$0000000D          0x00000322   Section        8  __rtentry2.o(.ARM.Collect$$rtentry$$0000000D)
    .ARM.Collect$$rtexit$$00000000           0x0000032a   Section        2  rtexit.o(.ARM.Collect$$rtexit$$00000000)
    .ARM.Collect$$rtexit$$00000002           0x0000032c   Section        0  rtexit2.o(.ARM.Collect$$rtexit$$00000002)
    .ARM.Collect$$rtexit$$00000003           0x0000032c   Section        4  rtexit2.o(.ARM.Collect$$rtexit$$00000003)
    .ARM.Collect$$rtexit$$00000004           0x00000330   Section        6  rtexit2.o(.ARM.Collect$$rtexit$$00000004)
    $v0                                      0x00000338   Number         0  startup_tm4c123.o(.text)
    .text                                    0x00000338   Section      276  startup_tm4c123.o(.text)
    .text                                    0x0000044c   Section        0  noretval__2sprintf.o(.text)
    .text                                    0x00000474   Section        0  noretval__2snprintf.o(.text)
    .text                                    0x000004a8   Section        0  _printf_dec.o(.text)
    .text                                    0x00000520   Section        0  __printf_wp.o(.text)
    .text                                    0x0000062e   Section        0  strtok_r.o(.text)
    .text                                    0x00000632   Section        0  heapauxi.o(.text)
    .text                                    0x00000638   Section        0  _rserrno.o(.text)
    .text                                    0x0000064e   Section        0  _printf_intcommon.o(.text)
    _fp_digits                               0x00000701   Thumb Code   432  _printf_fp_dec.o(.text)
    .text                                    0x00000700   Section        0  _printf_fp_dec.o(.text)
    _printf_input_char                       0x00000b1d   Thumb Code    10  _printf_char_common.o(.text)
    .text                                    0x00000b1c   Section        0  _printf_char_common.o(.text)
    .text                                    0x00000b4c   Section        0  _sputc.o(.text)
    .text                                    0x00000b56   Section        0  _snputc.o(.text)
    _local_sscanf                            0x00000b69   Thumb Code    68  strtod.o(.text)
    .text                                    0x00000b68   Section        0  strtod.o(.text)
    .text                                    0x00000c18   Section        0  strtok_int.o(.text)
    .text                                    0x00000c5c   Section        8  rt_locale_intlibspace.o(.text)
    .text                                    0x00000c64   Section        8  rt_errno_addr_intlibspace.o(.text)
    .text                                    0x00000c6c   Section      138  lludiv10.o(.text)
    .text                                    0x00000cf6   Section        0  isspace.o(.text)
    .text                                    0x00000d08   Section        0  _printf_fp_infnan.o(.text)
    .text                                    0x00000d88   Section        0  _sgetc.o(.text)
    .text                                    0x00000dc8   Section        0  bigflt0.o(.text)
    .text                                    0x00000eac   Section        0  strcspn.o(.text)
    .text                                    0x00000ecc   Section        0  strspn.o(.text)
    .text                                    0x00000ee8   Section        8  libspace.o(.text)
    .text                                    0x00000ef0   Section       74  sys_stackheap_outer.o(.text)
    .text                                    0x00000f3c   Section       16  rt_ctype_table.o(.text)
    _fp_value                                0x00000f4d   Thumb Code   588  scanf_fp.o(.text)
    .text                                    0x00000f4c   Section        0  scanf_fp.o(.text)
    .text                                    0x00001444   Section        0  exit.o(.text)
    .text                                    0x00001458   Section      124  strcmpv7em.o(.text)
    .text                                    0x000014d4   Section       38  llshl.o(.text)
    .text                                    0x000014fc   Section        0  scanf_hexfp.o(.text)
    .text                                    0x0000181c   Section        0  scanf_infnan.o(.text)
    .text                                    0x00001950   Section        0  sys_exit.o(.text)
    .text                                    0x0000195c   Section        0  _chval.o(.text)
    .text                                    0x00001978   Section        2  use_no_semi.o(.text)
    .text                                    0x0000197a   Section        0  indicate_semi.o(.text)
    [Anonymous Symbol]                       0x00001980   Section        0  app.o(.text.APP_Compute_Distance)
    [Anonymous Symbol]                       0x00001b2c   Section        0  app.o(.text.APP_Destination_Reached)
    [Anonymous Symbol]                       0x00001bd0   Section        0  app.o(.text.APP_Float_To_Int)
    [Anonymous Symbol]                       0x00001be8   Section        0  app.o(.text.APP_LCD_Clear_Write)
    [Anonymous Symbol]                       0x00001c00   Section        0  app.o(.text.APP_LCD_Write)
    [Anonymous Symbol]                       0x00001c14   Section        0  app.o(.text.APP_Prompt_Dump_Read)
    [Anonymous Symbol]                       0x00001c4c   Section        0  app.o(.text.APP_Read_Point)
    [Anonymous Symbol]                       0x00001c70   Section        0  app.o(.text.APP_Send_Sentences)
    [Anonymous Symbol]                       0x00001d44   Section        0  app.o(.text.APP_System_Init)
    [Anonymous Symbol]                       0x00001d70   Section        0  app.o(.text.APP_To_Degree)
    [Anonymous Symbol]                       0x00001df8   Section        0  app.o(.text.APP_To_Radian)
    [Anonymous Symbol]                       0x00001e20   Section        0  app.o(.text.APP_UART_INIT)
    [Anonymous Symbol]                       0x00001e38   Section        0  app.o(.text.APP_Write_Point)
    E_RESET                                  0x00001e61   Thumb Code    20  lcd.o(.text.E_RESET)
    [Anonymous Symbol]                       0x00001e60   Section        0  lcd.o(.text.E_RESET)
    E_SET                                    0x00001e75   Thumb Code    20  lcd.o(.text.E_SET)
    [Anonymous Symbol]                       0x00001e74   Section        0  lcd.o(.text.E_SET)
    [Anonymous Symbol]                       0x00001e88   Section        0  gps.o(.text.HAL_GPS_Read)
    [Anonymous Symbol]                       0x00001f04   Section        0  lcd.o(.text.HAL_LCD_Clear)
    [Anonymous Symbol]                       0x00001f10   Section        0  lcd.o(.text.HAL_LCD_Init)
    [Anonymous Symbol]                       0x00001f38   Section        0  lcd.o(.text.HAL_LCD_Send_CMD)
    [Anonymous Symbol]                       0x00001f94   Section        0  lcd.o(.text.HAL_LCD_Send_Char)
    [Anonymous Symbol]                       0x00001ff0   Section        0  lcd.o(.text.HAL_LCD_Send_Number)
    [Anonymous Symbol]                       0x0000201c   Section        0  lcd.o(.text.HAL_LCD_Send_String)
    [Anonymous Symbol]                       0x00002040   Section        0  lcd.o(.text.HAL_LCD_XY)
    [Anonymous Symbol]                       0x0000205c   Section        0  led.o(.text.HAL_LEDS_INIT)
    [Anonymous Symbol]                       0x00002094   Section        0  led.o(.text.HAL_LED_SET)
    [Anonymous Symbol]                       0x000020a8   Section        0  switch.o(.text.HAL_SWITCH_GET)
    LCD_DATA_CTRL_Init                       0x000020cd   Thumb Code   116  lcd.o(.text.LCD_DATA_CTRL_Init)
    [Anonymous Symbol]                       0x000020cc   Section        0  lcd.o(.text.LCD_DATA_CTRL_Init)
    [Anonymous Symbol]                       0x00002140   Section        0  eeprom_programme.o(.text.MCAL_EEPROM_Config_BlockOffset)
    [Anonymous Symbol]                       0x00002154   Section        0  eeprom_programme.o(.text.MCAL_EEPROM_Fix_Error)
    [Anonymous Symbol]                       0x00002188   Section        0  eeprom_programme.o(.text.MCAL_EEPROM_INIT)
    [Anonymous Symbol]                       0x000021d4   Section        0  eeprom_programme.o(.text.MCAL_EEPROM_Read)
    [Anonymous Symbol]                       0x000021f0   Section        0  eeprom_programme.o(.text.MCAL_EEPROM_Software_Reset)
    [Anonymous Symbol]                       0x00002218   Section        0  eeprom_programme.o(.text.MCAL_EEPROM_Write)
    [Anonymous Symbol]                       0x00002234   Section        0  gpio_proggramm.o(.text.MCAL_GPIO_GetPinValue)
    [Anonymous Symbol]                       0x00002254   Section        0  gpio_proggramm.o(.text.MCAL_GPIO_INIT)
    [Anonymous Symbol]                       0x00002290   Section        0  gpio_proggramm.o(.text.MCAL_GPIO_SetPinMode)
    [Anonymous Symbol]                       0x00002320   Section        0  gpio_proggramm.o(.text.MCAL_GPIO_SetPinValue)
    [Anonymous Symbol]                       0x00002348   Section        0  stk_program.o(.text.MCAL_STK_Delay_ms)
    [Anonymous Symbol]                       0x00002368   Section        0  uart_src.o(.text.MCAL_UART_Init)
    [Anonymous Symbol]                       0x00002440   Section        0  uart_src.o(.text.MCAL_UART_Receive_Byte_Poll)
    [Anonymous Symbol]                       0x00002450   Section        0  uart_src.o(.text.MCAL_UART_Send_Byte_Poll)
    [Anonymous Symbol]                       0x00002460   Section        0  uart_src.o(.text.MCAL_UART_Send_String)
    RS_RESET                                 0x00002485   Thumb Code    20  lcd.o(.text.RS_RESET)
    [Anonymous Symbol]                       0x00002484   Section        0  lcd.o(.text.RS_RESET)
    RS_SET                                   0x00002499   Thumb Code    20  lcd.o(.text.RS_SET)
    [Anonymous Symbol]                       0x00002498   Section        0  lcd.o(.text.RS_SET)
    RW_RESET                                 0x000024ad   Thumb Code    20  lcd.o(.text.RW_RESET)
    [Anonymous Symbol]                       0x000024ac   Section        0  lcd.o(.text.RW_RESET)
    [Anonymous Symbol]                       0x000024c0   Section        0  stk_program.o(.text.STK_wait)
    [Anonymous Symbol]                       0x000024e4   Section        0  system_tm4c123.o(.text.SystemInit)
    UART_GPIO_RCC                            0x00002555   Thumb Code   558  uart_src.o(.text.UART_GPIO_RCC)
    [Anonymous Symbol]                       0x00002554   Section        0  uart_src.o(.text.UART_GPIO_RCC)
    [Anonymous Symbol]                       0x00002784   Section        0  lcd.o(.text.delay_ms)
    [Anonymous Symbol]                       0x000027b0   Section        0  main.o(.text.main)
    [Anonymous Symbol]                       0x000029a4   Section        0  gps.o(.text.parse_GPS_data)
    CL$$btod_d2e                             0x00002a22   Section       62  btod.o(CL$$btod_d2e)
    CL$$btod_d2e_denorm_low                  0x00002a60   Section       70  btod.o(CL$$btod_d2e_denorm_low)
    CL$$btod_d2e_norm_op1                    0x00002aa6   Section       96  btod.o(CL$$btod_d2e_norm_op1)
    CL$$btod_div_common                      0x00002b06   Section      824  btod.o(CL$$btod_div_common)
    CL$$btod_e2d                             0x00002e40   Section      132  btod.o(CL$$btod_e2d)
    CL$$btod_e2e                             0x00002ec4   Section      220  btod.o(CL$$btod_e2e)
    CL$$btod_ediv                            0x00002fa0   Section       42  btod.o(CL$$btod_ediv)
    CL$$btod_edivd                           0x00002fca   Section       42  btod.o(CL$$btod_edivd)
    CL$$btod_emul                            0x00002ff4   Section       42  btod.o(CL$$btod_emul)
    CL$$btod_emuld                           0x0000301e   Section       42  btod.o(CL$$btod_emuld)
    CL$$btod_mult_common                     0x00003048   Section      580  btod.o(CL$$btod_mult_common)
    i.__ARM_fpclassify                       0x0000328c   Section        0  fpclassify.o(i.__ARM_fpclassify)
    i.__hardfp___mathlib_tofloat             0x000032c0   Section        0  narrow.o(i.__hardfp___mathlib_tofloat)
    i.__hardfp_atan                          0x000033b8   Section        0  atan.o(i.__hardfp_atan)
    i.__hardfp_atan2                         0x00003690   Section        0  atan2.o(i.__hardfp_atan2)
    i.__hardfp_atof                          0x00003890   Section        0  atof.o(i.__hardfp_atof)
    i.__hardfp_cos                           0x000038c8   Section        0  cos.o(i.__hardfp_cos)
    i.__hardfp_ldexp                         0x00003990   Section        0  ldexp.o(i.__hardfp_ldexp)
    i.__hardfp_pow                           0x00003a60   Section        0  pow.o(i.__hardfp_pow)
    i.__hardfp_sin                           0x000046b0   Section        0  sin.o(i.__hardfp_sin)
    i.__hardfp_sqrt                          0x00004778   Section        0  sqrt.o(i.__hardfp_sqrt)
    i.__ieee754_rem_pio2                     0x000047f8   Section        0  rred.o(i.__ieee754_rem_pio2)
    i.__kernel_cos                           0x00004c30   Section        0  cos_i.o(i.__kernel_cos)
    i.__kernel_poly                          0x00004da0   Section        0  poly.o(i.__kernel_poly)
    i.__kernel_sin                           0x00004e98   Section        0  sin_i.o(i.__kernel_sin)
    i.__mathlib_dbl_divzero                  0x00004fc8   Section        0  dunder.o(i.__mathlib_dbl_divzero)
    i.__mathlib_dbl_infnan                   0x00004ff8   Section        0  dunder.o(i.__mathlib_dbl_infnan)
    i.__mathlib_dbl_infnan2                  0x0000500c   Section        0  dunder.o(i.__mathlib_dbl_infnan2)
    i.__mathlib_dbl_invalid                  0x00005020   Section        0  dunder.o(i.__mathlib_dbl_invalid)
    i.__mathlib_dbl_overflow                 0x00005040   Section        0  dunder.o(i.__mathlib_dbl_overflow)
    i.__mathlib_dbl_underflow                0x00005060   Section        0  dunder.o(i.__mathlib_dbl_underflow)
    i.__mathlib_narrow                       0x00005080   Section        0  narrow.o(i.__mathlib_narrow)
    i.__support_ldexp                        0x00005092   Section        0  ldexp.o(i.__support_ldexp)
    i._is_digit                              0x000050a6   Section        0  __printf_wp.o(i._is_digit)
    i.atan                                   0x000050b4   Section        0  atan.o(i.atan)
    i.fabs                                   0x000050c4   Section        0  fabs.o(i.fabs)
    i.frexp                                  0x000050e0   Section        0  frexp.o(i.frexp)
    i.sqrt                                   0x0000516c   Section        0  sqrt.o(i.sqrt)
    locale$$code                             0x000051dc   Section       44  lc_numeric_c.o(locale$$code)
    locale$$code                             0x00005208   Section       44  lc_ctype_c.o(locale$$code)
    $v0                                      0x00005234   Number         0  basic.o(x$fpl$basic)
    x$fpl$basic                              0x00005234   Section       24  basic.o(x$fpl$basic)
    $v0                                      0x0000524c   Number         0  d2f.o(x$fpl$d2f)
    x$fpl$d2f                                0x0000524c   Section       98  d2f.o(x$fpl$d2f)
    $v0                                      0x000052b0   Number         0  daddsub_clz.o(x$fpl$dadd)
    x$fpl$dadd                               0x000052b0   Section      336  daddsub_clz.o(x$fpl$dadd)
    _dadd1                                   0x000052c1   Thumb Code     0  daddsub_clz.o(x$fpl$dadd)
    $v0                                      0x00005400   Number         0  dcheck1.o(x$fpl$dcheck1)
    x$fpl$dcheck1                            0x00005400   Section       16  dcheck1.o(x$fpl$dcheck1)
    $v0                                      0x00005410   Number         0  dcmpi.o(x$fpl$dcmpinf)
    x$fpl$dcmpinf                            0x00005410   Section       24  dcmpi.o(x$fpl$dcmpinf)
    $v0                                      0x00005428   Number         0  ddiv.o(x$fpl$ddiv)
    x$fpl$ddiv                               0x00005428   Section      688  ddiv.o(x$fpl$ddiv)
    ddiv_entry                               0x0000542f   Thumb Code     0  ddiv.o(x$fpl$ddiv)
    $v0                                      0x000056d8   Number         0  deqf.o(x$fpl$deqf)
    x$fpl$deqf                               0x000056d8   Section      120  deqf.o(x$fpl$deqf)
    $v0                                      0x00005750   Number         0  dfix.o(x$fpl$dfix)
    x$fpl$dfix                               0x00005750   Section       94  dfix.o(x$fpl$dfix)
    $v0                                      0x000057b0   Number         0  dfixu.o(x$fpl$dfixu)
    x$fpl$dfixu                              0x000057b0   Section       90  dfixu.o(x$fpl$dfixu)
    $v0                                      0x0000580a   Number         0  dflt_clz.o(x$fpl$dflt)
    x$fpl$dflt                               0x0000580a   Section       46  dflt_clz.o(x$fpl$dflt)
    $v0                                      0x00005838   Number         0  dflt_clz.o(x$fpl$dfltu)
    x$fpl$dfltu                              0x00005838   Section       38  dflt_clz.o(x$fpl$dfltu)
    $v0                                      0x00005860   Number         0  dgeqf.o(x$fpl$dgeqf)
    x$fpl$dgeqf                              0x00005860   Section      120  dgeqf.o(x$fpl$dgeqf)
    $v0                                      0x000058d8   Number         0  dleqf.o(x$fpl$dleqf)
    x$fpl$dleqf                              0x000058d8   Section      120  dleqf.o(x$fpl$dleqf)
    $v0                                      0x00005950   Number         0  dmul.o(x$fpl$dmul)
    x$fpl$dmul                               0x00005950   Section      340  dmul.o(x$fpl$dmul)
    $v0                                      0x00005aa4   Number         0  dnaninf.o(x$fpl$dnaninf)
    x$fpl$dnaninf                            0x00005aa4   Section      156  dnaninf.o(x$fpl$dnaninf)
    $v0                                      0x00005b40   Number         0  dretinf.o(x$fpl$dretinf)
    x$fpl$dretinf                            0x00005b40   Section       12  dretinf.o(x$fpl$dretinf)
    $v0                                      0x00005b4c   Number         0  drleqf.o(x$fpl$drleqf)
    x$fpl$drleqf                             0x00005b4c   Section      108  drleqf.o(x$fpl$drleqf)
    $v0                                      0x00005bb8   Number         0  daddsub_clz.o(x$fpl$drsb)
    x$fpl$drsb                               0x00005bb8   Section       22  daddsub_clz.o(x$fpl$drsb)
    $v0                                      0x00005bd0   Number         0  dsqrt_umaal.o(x$fpl$dsqrt)
    x$fpl$dsqrt                              0x00005bd0   Section      408  dsqrt_umaal.o(x$fpl$dsqrt)
    $v0                                      0x00005d68   Number         0  daddsub_clz.o(x$fpl$dsub)
    x$fpl$dsub                               0x00005d68   Section      468  daddsub_clz.o(x$fpl$dsub)
    _dsub1                                   0x00005d79   Thumb Code     0  daddsub_clz.o(x$fpl$dsub)
    $v0                                      0x00005f3c   Number         0  f2d.o(x$fpl$f2d)
    x$fpl$f2d                                0x00005f3c   Section       86  f2d.o(x$fpl$f2d)
    $v0                                      0x00005f92   Number         0  dcmp.o(x$fpl$fcmp)
    x$fpl$fcmp                               0x00005f92   Section       84  dcmp.o(x$fpl$fcmp)
    $v0                                      0x00005fe6   Number         0  fnaninf.o(x$fpl$fnaninf)
    x$fpl$fnaninf                            0x00005fe6   Section      140  fnaninf.o(x$fpl$fnaninf)
    $v0                                      0x00006072   Number         0  fpinit.o(x$fpl$fpinit)
    x$fpl$fpinit                             0x00006072   Section       26  fpinit.o(x$fpl$fpinit)
    $v0                                      0x0000608c   Number         0  fretinf.o(x$fpl$fretinf)
    x$fpl$fretinf                            0x0000608c   Section       10  fretinf.o(x$fpl$fretinf)
    $v0                                      0x00006096   Number         0  istatus.o(x$fpl$ieeestatus)
    x$fpl$ieeestatus                         0x00006096   Section        6  istatus.o(x$fpl$ieeestatus)
    $v0                                      0x0000609c   Number         0  printf1.o(x$fpl$printf1)
    x$fpl$printf1                            0x0000609c   Section        4  printf1.o(x$fpl$printf1)
    $v0                                      0x000060a0   Number         0  retnan.o(x$fpl$retnan)
    x$fpl$retnan                             0x000060a0   Section      100  retnan.o(x$fpl$retnan)
    $v0                                      0x00006104   Number         0  scalbn.o(x$fpl$scalbn)
    x$fpl$scalbn                             0x00006104   Section       92  scalbn.o(x$fpl$scalbn)
    $v0                                      0x00006160   Number         0  scanf1.o(x$fpl$scanf1)
    x$fpl$scanf1                             0x00006160   Section        4  scanf1.o(x$fpl$scanf1)
    $v0                                      0x00006164   Number         0  scanf2.o(x$fpl$scanf2)
    x$fpl$scanf2                             0x00006164   Section        8  scanf2.o(x$fpl$scanf2)
    $v0                                      0x0000616c   Number         0  trapv.o(x$fpl$trapveneer)
    x$fpl$trapveneer                         0x0000616c   Section       48  trapv.o(x$fpl$trapveneer)
    x$fpl$usenofp                            0x0000619c   Section        0  usenofp.o(x$fpl$usenofp)
    bp                                       0x000061a0   Data          16  pow.o(.constdata)
    .constdata                               0x000061a0   Section      136  pow.o(.constdata)
    dp_h                                     0x000061b0   Data          16  pow.o(.constdata)
    dp_l                                     0x000061c0   Data          16  pow.o(.constdata)
    L                                        0x000061d0   Data          48  pow.o(.constdata)
    P                                        0x00006200   Data          40  pow.o(.constdata)
    atanhi                                   0x00006228   Data          32  atan.o(.constdata)
    .constdata                               0x00006228   Section      152  atan.o(.constdata)
    atanlo                                   0x00006248   Data          32  atan.o(.constdata)
    aTodd                                    0x00006268   Data          40  atan.o(.constdata)
    aTeven                                   0x00006290   Data          48  atan.o(.constdata)
    C                                        0x000062c0   Data          48  cos_i.o(.constdata)
    .constdata                               0x000062c0   Section       48  cos_i.o(.constdata)
    .constdata                               0x000062f0   Section        8  qnan.o(.constdata)
    pio2s                                    0x000062f8   Data          48  rred.o(.constdata)
    .constdata                               0x000062f8   Section      204  rred.o(.constdata)
    twooverpi                                0x00006328   Data         156  rred.o(.constdata)
    S                                        0x000063c8   Data          40  sin_i.o(.constdata)
    .constdata                               0x000063c8   Section       40  sin_i.o(.constdata)
    tenpwrs_x                                0x000063f0   Data          60  bigflt0.o(.constdata)
    .constdata                               0x000063f0   Section      148  bigflt0.o(.constdata)
    tenpwrs_i                                0x0000642c   Data          64  bigflt0.o(.constdata)
    .L.str.1                                 0x00006484   Data          14  main.o(.rodata.str1.1)
    [Anonymous Symbol]                       0x00006484   Section        0  main.o(.rodata.str1.1)
    .L.str                                   0x00006492   Data           2  gps.o(.rodata.str1.1)
    [Anonymous Symbol]                       0x00006492   Section        0  gps.o(.rodata.str1.1)
    c$$dinf                                  0x000064b4   Section        8  fpconst.o(c$$dinf)
    c$$dmax                                  0x000064bc   Section        8  fpconst.o(c$$dmax)
    locale$$data                             0x000064c4   Section       28  lc_numeric_c.o(locale$$data)
    __lcnum_c_name                           0x000064c8   Data           2  lc_numeric_c.o(locale$$data)
    __lcnum_c_start                          0x000064d0   Data           0  lc_numeric_c.o(locale$$data)
    __lcnum_c_point                          0x000064dc   Data           0  lc_numeric_c.o(locale$$data)
    __lcnum_c_thousands                      0x000064de   Data           0  lc_numeric_c.o(locale$$data)
    __lcnum_c_grouping                       0x000064df   Data           0  lc_numeric_c.o(locale$$data)
    __lcnum_c_end                            0x000064e0   Data           0  lc_numeric_c.o(locale$$data)
    locale$$data                             0x000064e0   Section      272  lc_ctype_c.o(locale$$data)
    __lcctype_c_name                         0x000064e4   Data           2  lc_ctype_c.o(locale$$data)
    __lcctype_c_start                        0x000064ec   Data           0  lc_ctype_c.o(locale$$data)
    __lcctype_c_end                          0x000065f0   Data           0  lc_ctype_c.o(locale$$data)
    .bss                                     0x20000008   Section       96  libspace.o(.bss)
    Heap_Mem                                 0x20000108   Data           0  startup_tm4c123.o(HEAP)
    Stack_Mem                                0x20000108   Data         512  startup_tm4c123.o(STACK)
    HEAP                                     0x20000108   Section        0  startup_tm4c123.o(HEAP)
    STACK                                    0x20000108   Section      512  startup_tm4c123.o(STACK)
    __initial_sp                             0x20000308   Data           0  startup_tm4c123.o(STACK)

    Global Symbols

    Symbol Name                              Value     Ov Type        Size  Object(Section)

    BuildAttributes$$THM_ISAv4$E$P$D$K$B$S$7EM$VFPi3$EXTD16$VFPS$VFMA$PE$A:L22UL41UL21$X:L11$S22US41US21$IEEE1$IW$~IW$USESV6$~STKCKD$USESV7$~SHL$OTIME$ROPI$IEEEX$EBA8$UX$STANDARDLIB$REQ8$PRES8$EABIv2 0x00000000   Number         0  anon$$obj.o ABSOLUTE
    __Vectors                                0x00000000   Data           4  startup_tm4c123.o(RESET)
    _printf_flags                            0x00000000   Number         0  printf_stubs.o ABSOLUTE
    _printf_return_value                     0x00000000   Number         0  printf_stubs.o ABSOLUTE
    _printf_sizespec                         0x00000000   Number         0  printf_stubs.o ABSOLUTE
    _printf_widthprec                        0x00000000   Number         0  printf_stubs.o ABSOLUTE
    __ARM_exceptions_init                     - Undefined Weak Reference
    __alloca_initialize                       - Undefined Weak Reference
    __arm_preinit_                            - Undefined Weak Reference
    __cpp_initialize__aeabi_                  - Undefined Weak Reference
    __cxa_finalize                            - Undefined Weak Reference
    __sigvec_lookup                           - Undefined Weak Reference
    _atexit_init                              - Undefined Weak Reference
    _call_atexit_fns                          - Undefined Weak Reference
    _clock_init                               - Undefined Weak Reference
    _fp_trap_init                             - Undefined Weak Reference
    _fp_trap_shutdown                         - Undefined Weak Reference
    _get_lc_collate                           - Undefined Weak Reference
    _get_lc_monetary                          - Undefined Weak Reference
    _get_lc_time                              - Undefined Weak Reference
    _getenv_init                              - Undefined Weak Reference
    _handle_redirection                       - Undefined Weak Reference
    _init_alloc                               - Undefined Weak Reference
    _init_user_alloc                          - Undefined Weak Reference
    _initio                                   - Undefined Weak Reference
    _printf_post_padding                      - Undefined Weak Reference
    _printf_pre_padding                       - Undefined Weak Reference
    _printf_truncate_signed                   - Undefined Weak Reference
    _printf_truncate_unsigned                 - Undefined Weak Reference
    _rand_init                                - Undefined Weak Reference
    _signal_finish                            - Undefined Weak Reference
    _signal_init                              - Undefined Weak Reference
    _terminate_alloc                          - Undefined Weak Reference
    _terminate_user_alloc                     - Undefined Weak Reference
    _terminateio                              - Undefined Weak Reference
    __Vectors_End                            0x0000026c   Data           0  startup_tm4c123.o(RESET)
    __Vectors_Size                           0x0000026c   Number         0  startup_tm4c123.o ABSOLUTE
    __main                                   0x0000026d   Thumb Code     8  __main.o(!!!main)
    __scatterload                            0x00000275   Thumb Code     0  __scatter.o(!!!scatter)
    __scatterload_rt2                        0x00000275   Thumb Code    44  __scatter.o(!!!scatter)
    __scatterload_rt2_thumb_only             0x00000275   Thumb Code     0  __scatter.o(!!!scatter)
    __scatterload_null                       0x00000283   Thumb Code     0  __scatter.o(!!!scatter)
    __scatterload_copy                       0x000002a9   Thumb Code    26  __scatter_copy.o(!!handler_copy)
    __scatterload_zeroinit                   0x000002c5   Thumb Code    28  __scatter_zi.o(!!handler_zi)
    _printf_f                                0x000002e1   Thumb Code     0  _printf_f.o(.ARM.Collect$$_printf_percent$$00000003)
    _printf_percent                          0x000002e1   Thumb Code     0  _printf_percent.o(.ARM.Collect$$_printf_percent$$00000000)
    _printf_d                                0x000002e7   Thumb Code     0  _printf_d.o(.ARM.Collect$$_printf_percent$$00000009)
    _printf_percent_end                      0x000002ed   Thumb Code     0  _printf_percent_end.o(.ARM.Collect$$_printf_percent$$00000017)
    __rt_lib_init                            0x000002f1   Thumb Code     0  libinit.o(.ARM.Collect$$libinit$$00000000)
    __rt_lib_init_fp_1                       0x000002f3   Thumb Code     0  libinit2.o(.ARM.Collect$$libinit$$00000001)
    __rt_lib_init_heap_1                     0x000002f7   Thumb Code     0  libinit2.o(.ARM.Collect$$libinit$$0000000A)
    __rt_lib_init_lc_common                  0x000002f7   Thumb Code     0  libinit2.o(.ARM.Collect$$libinit$$0000000F)
    __rt_lib_init_preinit_1                  0x000002f7   Thumb Code     0  libinit2.o(.ARM.Collect$$libinit$$00000004)
    __rt_lib_init_rand_1                     0x000002f7   Thumb Code     0  libinit2.o(.ARM.Collect$$libinit$$0000000E)
    __rt_lib_init_user_alloc_1               0x000002f7   Thumb Code     0  libinit2.o(.ARM.Collect$$libinit$$0000000C)
    __rt_lib_init_lc_collate_1               0x000002fd   Thumb Code     0  libinit2.o(.ARM.Collect$$libinit$$00000011)
    __rt_lib_init_lc_ctype_2                 0x000002fd   Thumb Code     0  libinit2.o(.ARM.Collect$$libinit$$00000012)
    __rt_lib_init_lc_ctype_1                 0x00000309   Thumb Code     0  libinit2.o(.ARM.Collect$$libinit$$00000013)
    __rt_lib_init_lc_monetary_1              0x00000309   Thumb Code     0  libinit2.o(.ARM.Collect$$libinit$$00000015)
    __rt_lib_init_lc_numeric_2               0x00000309   Thumb Code     0  libinit2.o(.ARM.Collect$$libinit$$00000016)
    __rt_lib_init_alloca_1                   0x00000313   Thumb Code     0  libinit2.o(.ARM.Collect$$libinit$$0000002E)
    __rt_lib_init_argv_1                     0x00000313   Thumb Code     0  libinit2.o(.ARM.Collect$$libinit$$0000002C)
    __rt_lib_init_atexit_1                   0x00000313   Thumb Code     0  libinit2.o(.ARM.Collect$$libinit$$0000001B)
    __rt_lib_init_clock_1                    0x00000313   Thumb Code     0  libinit2.o(.ARM.Collect$$libinit$$00000021)
    __rt_lib_init_cpp_1                      0x00000313   Thumb Code     0  libinit2.o(.ARM.Collect$$libinit$$00000032)
    __rt_lib_init_exceptions_1               0x00000313   Thumb Code     0  libinit2.o(.ARM.Collect$$libinit$$00000030)
    __rt_lib_init_fp_trap_1                  0x00000313   Thumb Code     0  libinit2.o(.ARM.Collect$$libinit$$0000001F)
    __rt_lib_init_getenv_1                   0x00000313   Thumb Code     0  libinit2.o(.ARM.Collect$$libinit$$00000023)
    __rt_lib_init_lc_numeric_1               0x00000313   Thumb Code     0  libinit2.o(.ARM.Collect$$libinit$$00000017)
    __rt_lib_init_lc_time_1                  0x00000313   Thumb Code     0  libinit2.o(.ARM.Collect$$libinit$$00000019)
    __rt_lib_init_return                     0x00000313   Thumb Code     0  libinit2.o(.ARM.Collect$$libinit$$00000033)
    __rt_lib_init_signal_1                   0x00000313   Thumb Code     0  libinit2.o(.ARM.Collect$$libinit$$0000001D)
    __rt_lib_init_stdio_1                    0x00000313   Thumb Code     0  libinit2.o(.ARM.Collect$$libinit$$00000025)
    __rt_lib_shutdown                        0x00000315   Thumb Code     0  libshutdown.o(.ARM.Collect$$libshutdown$$00000000)
    __rt_lib_shutdown_cpp_1                  0x00000317   Thumb Code     0  libshutdown2.o(.ARM.Collect$$libshutdown$$00000002)
    __rt_lib_shutdown_fp_trap_1              0x00000317   Thumb Code     0  libshutdown2.o(.ARM.Collect$$libshutdown$$00000007)
    __rt_lib_shutdown_heap_1                 0x00000317   Thumb Code     0  libshutdown2.o(.ARM.Collect$$libshutdown$$0000000F)
    __rt_lib_shutdown_return                 0x00000317   Thumb Code     0  libshutdown2.o(.ARM.Collect$$libshutdown$$00000010)
    __rt_lib_shutdown_signal_1               0x00000317   Thumb Code     0  libshutdown2.o(.ARM.Collect$$libshutdown$$0000000A)
    __rt_lib_shutdown_stdio_1                0x00000317   Thumb Code     0  libshutdown2.o(.ARM.Collect$$libshutdown$$00000004)
    __rt_lib_shutdown_user_alloc_1           0x00000317   Thumb Code     0  libshutdown2.o(.ARM.Collect$$libshutdown$$0000000C)
    __rt_entry                               0x00000319   Thumb Code     0  __rtentry.o(.ARM.Collect$$rtentry$$00000000)
    __rt_entry_presh_1                       0x00000319   Thumb Code     0  __rtentry2.o(.ARM.Collect$$rtentry$$00000002)
    __rt_entry_sh                            0x00000319   Thumb Code     0  __rtentry4.o(.ARM.Collect$$rtentry$$00000004)
    __rt_entry_li                            0x0000031f   Thumb Code     0  __rtentry2.o(.ARM.Collect$$rtentry$$0000000A)
    __rt_entry_postsh_1                      0x0000031f   Thumb Code     0  __rtentry2.o(.ARM.Collect$$rtentry$$00000009)
    __rt_entry_main                          0x00000323   Thumb Code     0  __rtentry2.o(.ARM.Collect$$rtentry$$0000000D)
    __rt_entry_postli_1                      0x00000323   Thumb Code     0  __rtentry2.o(.ARM.Collect$$rtentry$$0000000C)
    __rt_exit                                0x0000032b   Thumb Code     0  rtexit.o(.ARM.Collect$$rtexit$$00000000)
    __rt_exit_ls                             0x0000032d   Thumb Code     0  rtexit2.o(.ARM.Collect$$rtexit$$00000003)
    __rt_exit_prels_1                        0x0000032d   Thumb Code     0  rtexit2.o(.ARM.Collect$$rtexit$$00000002)
    __rt_exit_exit                           0x00000331   Thumb Code     0  rtexit2.o(.ARM.Collect$$rtexit$$00000004)
    Reset_Handler                            0x00000339   Thumb Code     8  startup_tm4c123.o(.text)
    NMI_Handler                              0x00000341   Thumb Code     2  startup_tm4c123.o(.text)
    HardFault_Handler                        0x00000343   Thumb Code     2  startup_tm4c123.o(.text)
    MemManage_Handler                        0x00000345   Thumb Code     2  startup_tm4c123.o(.text)
    BusFault_Handler                         0x00000347   Thumb Code     2  startup_tm4c123.o(.text)
    UsageFault_Handler                       0x00000349   Thumb Code     2  startup_tm4c123.o(.text)
    SVC_Handler                              0x0000034b   Thumb Code     2  startup_tm4c123.o(.text)
    DebugMon_Handler                         0x0000034d   Thumb Code     2  startup_tm4c123.o(.text)
    PendSV_Handler                           0x0000034f   Thumb Code     2  startup_tm4c123.o(.text)
    SysTick_Handler                          0x00000351   Thumb Code     2  startup_tm4c123.o(.text)
    GPIOA_Handler                            0x00000353   Thumb Code     2  startup_tm4c123.o(.text)
    GPIOB_Handler                            0x00000355   Thumb Code     2  startup_tm4c123.o(.text)
    GPIOC_Handler                            0x00000357   Thumb Code     2  startup_tm4c123.o(.text)
    GPIOD_Handler                            0x00000359   Thumb Code     2  startup_tm4c123.o(.text)
    GPIOE_Handler                            0x0000035b   Thumb Code     2  startup_tm4c123.o(.text)
    UART0_Handler                            0x0000035d   Thumb Code     2  startup_tm4c123.o(.text)
    UART1_Handler                            0x0000035f   Thumb Code     2  startup_tm4c123.o(.text)
    SSI0_Handler                             0x00000361   Thumb Code     2  startup_tm4c123.o(.text)
    I2C0_Handler                             0x00000363   Thumb Code     2  startup_tm4c123.o(.text)
    PMW0_FAULT_Handler                       0x00000365   Thumb Code     2  startup_tm4c123.o(.text)
    PWM0_0_Handler                           0x00000367   Thumb Code     2  startup_tm4c123.o(.text)
    PWM0_1_Handler                           0x00000369   Thumb Code     2  startup_tm4c123.o(.text)
    PWM0_2_Handler                           0x0000036b   Thumb Code     2  startup_tm4c123.o(.text)
    QEI0_Handler                             0x0000036d   Thumb Code     2  startup_tm4c123.o(.text)
    ADC0SS0_Handler                          0x0000036f   Thumb Code     2  startup_tm4c123.o(.text)
    ADC0SS1_Handler                          0x00000371   Thumb Code     2  startup_tm4c123.o(.text)
    ADC0SS2_Handler                          0x00000373   Thumb Code     2  startup_tm4c123.o(.text)
    ADC0SS3_Handler                          0x00000375   Thumb Code     2  startup_tm4c123.o(.text)
    WDT0_Handler                             0x00000377   Thumb Code     2  startup_tm4c123.o(.text)
    TIMER0A_Handler                          0x00000379   Thumb Code     2  startup_tm4c123.o(.text)
    TIMER0B_Handler                          0x0000037b   Thumb Code     2  startup_tm4c123.o(.text)
    TIMER1A_Handler                          0x0000037d   Thumb Code     2  startup_tm4c123.o(.text)
    TIMER1B_Handler                          0x0000037f   Thumb Code     2  startup_tm4c123.o(.text)
    TIMER2A_Handler                          0x00000381   Thumb Code     2  startup_tm4c123.o(.text)
    TIMER2B_Handler                          0x00000383   Thumb Code     2  startup_tm4c123.o(.text)
    COMP0_Handler                            0x00000385   Thumb Code     2  startup_tm4c123.o(.text)
    COMP1_Handler                            0x00000387   Thumb Code     2  startup_tm4c123.o(.text)
    COMP2_Handler                            0x00000389   Thumb Code     2  startup_tm4c123.o(.text)
    SYSCTL_Handler                           0x0000038b   Thumb Code     2  startup_tm4c123.o(.text)
    FLASH_Handler                            0x0000038d   Thumb Code     2  startup_tm4c123.o(.text)
    GPIOF_Handler                            0x0000038f   Thumb Code     2  startup_tm4c123.o(.text)
    GPIOG_Handler                            0x00000391   Thumb Code     2  startup_tm4c123.o(.text)
    GPIOH_Handler                            0x00000393   Thumb Code     2  startup_tm4c123.o(.text)
    UART2_Handler                            0x00000395   Thumb Code     2  startup_tm4c123.o(.text)
    SSI1_Handler                             0x00000397   Thumb Code     2  startup_tm4c123.o(.text)
    TIMER3A_Handler                          0x00000399   Thumb Code     2  startup_tm4c123.o(.text)
    TIMER3B_Handler                          0x0000039b   Thumb Code     2  startup_tm4c123.o(.text)
    I2C1_Handler                             0x0000039d   Thumb Code     2  startup_tm4c123.o(.text)
    QEI1_Handler                             0x0000039f   Thumb Code     2  startup_tm4c123.o(.text)
    CAN0_Handler                             0x000003a1   Thumb Code     2  startup_tm4c123.o(.text)
    CAN1_Handler                             0x000003a3   Thumb Code     2  startup_tm4c123.o(.text)
    CAN2_Handler                             0x000003a5   Thumb Code     2  startup_tm4c123.o(.text)
    HIB_Handler                              0x000003a7   Thumb Code     2  startup_tm4c123.o(.text)
    USB0_Handler                             0x000003a9   Thumb Code     2  startup_tm4c123.o(.text)
    PWM0_3_Handler                           0x000003ab   Thumb Code     2  startup_tm4c123.o(.text)
    UDMA_Handler                             0x000003ad   Thumb Code     2  startup_tm4c123.o(.text)
    UDMAERR_Handler                          0x000003af   Thumb Code     2  startup_tm4c123.o(.text)
    ADC1SS0_Handler                          0x000003b1   Thumb Code     2  startup_tm4c123.o(.text)
    ADC1SS1_Handler                          0x000003b3   Thumb Code     2  startup_tm4c123.o(.text)
    ADC1SS2_Handler                          0x000003b5   Thumb Code     2  startup_tm4c123.o(.text)
    ADC1SS3_Handler                          0x000003b7   Thumb Code     2  startup_tm4c123.o(.text)
    GPIOJ_Handler                            0x000003b9   Thumb Code     2  startup_tm4c123.o(.text)
    GPIOK_Handler                            0x000003bb   Thumb Code     2  startup_tm4c123.o(.text)
    GPIOL_Handler                            0x000003bd   Thumb Code     2  startup_tm4c123.o(.text)
    SSI2_Handler                             0x000003bf   Thumb Code     2  startup_tm4c123.o(.text)
    SSI3_Handler                             0x000003c1   Thumb Code     2  startup_tm4c123.o(.text)
    UART3_Handler                            0x000003c3   Thumb Code     2  startup_tm4c123.o(.text)
    UART4_Handler                            0x000003c5   Thumb Code     2  startup_tm4c123.o(.text)
    UART5_Handler                            0x000003c7   Thumb Code     2  startup_tm4c123.o(.text)
    UART6_Handler                            0x000003c9   Thumb Code     2  startup_tm4c123.o(.text)
    UART7_Handler                            0x000003cb   Thumb Code     2  startup_tm4c123.o(.text)
    I2C2_Handler                             0x000003cd   Thumb Code     2  startup_tm4c123.o(.text)
    I2C3_Handler                             0x000003cf   Thumb Code     2  startup_tm4c123.o(.text)
    TIMER4A_Handler                          0x000003d1   Thumb Code     2  startup_tm4c123.o(.text)
    TIMER4B_Handler                          0x000003d3   Thumb Code     2  startup_tm4c123.o(.text)
    TIMER5A_Handler                          0x000003d5   Thumb Code     2  startup_tm4c123.o(.text)
    TIMER5B_Handler                          0x000003d7   Thumb Code     2  startup_tm4c123.o(.text)
    WTIMER0A_Handler                         0x000003d9   Thumb Code     2  startup_tm4c123.o(.text)
    WTIMER0B_Handler                         0x000003db   Thumb Code     2  startup_tm4c123.o(.text)
    WTIMER1A_Handler                         0x000003dd   Thumb Code     2  startup_tm4c123.o(.text)
    WTIMER1B_Handler                         0x000003df   Thumb Code     2  startup_tm4c123.o(.text)
    WTIMER2A_Handler                         0x000003e1   Thumb Code     2  startup_tm4c123.o(.text)
    WTIMER2B_Handler                         0x000003e3   Thumb Code     2  startup_tm4c123.o(.text)
    WTIMER3A_Handler                         0x000003e5   Thumb Code     2  startup_tm4c123.o(.text)
    WTIMER3B_Handler                         0x000003e7   Thumb Code     2  startup_tm4c123.o(.text)
    WTIMER4A_Handler                         0x000003e9   Thumb Code     2  startup_tm4c123.o(.text)
    WTIMER4B_Handler                         0x000003eb   Thumb Code     2  startup_tm4c123.o(.text)
    WTIMER5A_Handler                         0x000003ed   Thumb Code     2  startup_tm4c123.o(.text)
    WTIMER5B_Handler                         0x000003ef   Thumb Code     2  startup_tm4c123.o(.text)
    FPU_Handler                              0x000003f1   Thumb Code     2  startup_tm4c123.o(.text)
    I2C4_Handler                             0x000003f3   Thumb Code     2  startup_tm4c123.o(.text)
    I2C5_Handler                             0x000003f5   Thumb Code     2  startup_tm4c123.o(.text)
    GPIOM_Handler                            0x000003f7   Thumb Code     2  startup_tm4c123.o(.text)
    GPION_Handler                            0x000003f9   Thumb Code     2  startup_tm4c123.o(.text)
    QEI2_Handler                             0x000003fb   Thumb Code     2  startup_tm4c123.o(.text)
    GPIOP0_Handler                           0x000003fd   Thumb Code     2  startup_tm4c123.o(.text)
    GPIOP1_Handler                           0x000003ff   Thumb Code     2  startup_tm4c123.o(.text)
    GPIOP2_Handler                           0x00000401   Thumb Code     2  startup_tm4c123.o(.text)
    GPIOP3_Handler                           0x00000403   Thumb Code     2  startup_tm4c123.o(.text)
    GPIOP4_Handler                           0x00000405   Thumb Code     2  startup_tm4c123.o(.text)
    GPIOP5_Handler                           0x00000407   Thumb Code     2  startup_tm4c123.o(.text)
    GPIOP6_Handler                           0x00000409   Thumb Code     2  startup_tm4c123.o(.text)
    GPIOP7_Handler                           0x0000040b   Thumb Code     2  startup_tm4c123.o(.text)
    GPIOQ0_Handler                           0x0000040d   Thumb Code     2  startup_tm4c123.o(.text)
    GPIOQ1_Handler                           0x0000040f   Thumb Code     2  startup_tm4c123.o(.text)
    GPIOQ2_Handler                           0x00000411   Thumb Code     2  startup_tm4c123.o(.text)
    GPIOQ3_Handler                           0x00000413   Thumb Code     2  startup_tm4c123.o(.text)
    GPIOQ4_Handler                           0x00000415   Thumb Code     2  startup_tm4c123.o(.text)
    GPIOQ5_Handler                           0x00000417   Thumb Code     2  startup_tm4c123.o(.text)
    GPIOQ6_Handler                           0x00000419   Thumb Code     2  startup_tm4c123.o(.text)
    GPIOQ7_Handler                           0x0000041b   Thumb Code     2  startup_tm4c123.o(.text)
    GPIOR_Handler                            0x0000041d   Thumb Code     2  startup_tm4c123.o(.text)
    GPIOS_Handler                            0x0000041f   Thumb Code     2  startup_tm4c123.o(.text)
    PMW1_0_Handler                           0x00000421   Thumb Code     2  startup_tm4c123.o(.text)
    PWM1_1_Handler                           0x00000423   Thumb Code     2  startup_tm4c123.o(.text)
    PWM1_2_Handler                           0x00000425   Thumb Code     2  startup_tm4c123.o(.text)
    PWM1_3_Handler                           0x00000427   Thumb Code     2  startup_tm4c123.o(.text)
    PWM1_FAULT_Handler                       0x00000429   Thumb Code     2  startup_tm4c123.o(.text)
    __user_initial_stackheap                 0x0000042d   Thumb Code     0  startup_tm4c123.o(.text)
    __2sprintf                               0x0000044d   Thumb Code    34  noretval__2sprintf.o(.text)
    __2snprintf                              0x00000475   Thumb Code    48  noretval__2snprintf.o(.text)
    _printf_int_dec                          0x000004a9   Thumb Code   104  _printf_dec.o(.text)
    __printf                                 0x00000521   Thumb Code   270  __printf_wp.o(.text)
    _strtok_r                                0x0000062f   Thumb Code     4  strtok_r.o(.text)
    strtok_r                                 0x0000062f   Thumb Code     0  strtok_r.o(.text)
    __use_two_region_memory                  0x00000633   Thumb Code     2  heapauxi.o(.text)
    __rt_heap_escrow$2region                 0x00000635   Thumb Code     2  heapauxi.o(.text)
    __rt_heap_expand$2region                 0x00000637   Thumb Code     2  heapauxi.o(.text)
    __read_errno                             0x00000639   Thumb Code    10  _rserrno.o(.text)
    __set_errno                              0x00000643   Thumb Code    12  _rserrno.o(.text)
    _printf_int_common                       0x0000064f   Thumb Code   178  _printf_intcommon.o(.text)
    _printf_fp_dec_real                      0x000008b1   Thumb Code   620  _printf_fp_dec.o(.text)
    _printf_char_common                      0x00000b27   Thumb Code    32  _printf_char_common.o(.text)
    _sputc                                   0x00000b4d   Thumb Code    10  _sputc.o(.text)
    _snputc                                  0x00000b57   Thumb Code    16  _snputc.o(.text)
    __strtod_int                             0x00000bad   Thumb Code    94  strtod.o(.text)
    __strtok_internal                        0x00000c19   Thumb Code    64  strtok_int.o(.text)
    __rt_locale                              0x00000c5d   Thumb Code     8  rt_locale_intlibspace.o(.text)
    __aeabi_errno_addr                       0x00000c65   Thumb Code     8  rt_errno_addr_intlibspace.o(.text)
    __errno$intlibspace                      0x00000c65   Thumb Code     0  rt_errno_addr_intlibspace.o(.text)
    __rt_errno_addr$intlibspace              0x00000c65   Thumb Code     0  rt_errno_addr_intlibspace.o(.text)
    _ll_udiv10                               0x00000c6d   Thumb Code   138  lludiv10.o(.text)
    isspace                                  0x00000cf7   Thumb Code    18  isspace.o(.text)
    _printf_fp_infnan                        0x00000d09   Thumb Code   112  _printf_fp_infnan.o(.text)
    _sgetc                                   0x00000d89   Thumb Code    30  _sgetc.o(.text)
    _sbackspace                              0x00000da7   Thumb Code    34  _sgetc.o(.text)
    _btod_etento                             0x00000dc9   Thumb Code   224  bigflt0.o(.text)
    strcspn                                  0x00000ead   Thumb Code    32  strcspn.o(.text)
    strspn                                   0x00000ecd   Thumb Code    28  strspn.o(.text)
    __user_libspace                          0x00000ee9   Thumb Code     8  libspace.o(.text)
    __user_perproc_libspace                  0x00000ee9   Thumb Code     0  libspace.o(.text)
    __user_perthread_libspace                0x00000ee9   Thumb Code     0  libspace.o(.text)
    __user_setup_stackheap                   0x00000ef1   Thumb Code    74  sys_stackheap_outer.o(.text)
    __rt_ctype_table                         0x00000f3d   Thumb Code    16  rt_ctype_table.o(.text)
    _scanf_really_real                       0x00001199   Thumb Code   684  scanf_fp.o(.text)
    exit                                     0x00001445   Thumb Code    18  exit.o(.text)
    strcmp                                   0x00001459   Thumb Code   124  strcmpv7em.o(.text)
    __aeabi_llsl                             0x000014d5   Thumb Code     0  llshl.o(.text)
    _ll_shift_l                              0x000014d5   Thumb Code    38  llshl.o(.text)
    _scanf_really_hex_real                   0x000014fd   Thumb Code   786  scanf_hexfp.o(.text)
    _scanf_really_infnan                     0x0000181d   Thumb Code   292  scanf_infnan.o(.text)
    _sys_exit                                0x00001951   Thumb Code     8  sys_exit.o(.text)
    _chval                                   0x0000195d   Thumb Code    28  _chval.o(.text)
    __I$use$semihosting                      0x00001979   Thumb Code     0  use_no_semi.o(.text)
    __use_no_semihosting_swi                 0x00001979   Thumb Code     2  use_no_semi.o(.text)
    __semihosting_library_function           0x0000197b   Thumb Code     0  indicate_semi.o(.text)
    APP_Compute_Distance                     0x00001981   Thumb Code   428  app.o(.text.APP_Compute_Distance)
    APP_Destination_Reached                  0x00001b2d   Thumb Code   164  app.o(.text.APP_Destination_Reached)
    APP_Float_To_Int                         0x00001bd1   Thumb Code    24  app.o(.text.APP_Float_To_Int)
    APP_LCD_Clear_Write                      0x00001be9   Thumb Code    24  app.o(.text.APP_LCD_Clear_Write)
    APP_LCD_Write                            0x00001c01   Thumb Code    20  app.o(.text.APP_LCD_Write)
    APP_Prompt_Dump_Read                     0x00001c15   Thumb Code    56  app.o(.text.APP_Prompt_Dump_Read)
    APP_Read_Point                           0x00001c4d   Thumb Code    34  app.o(.text.APP_Read_Point)
    APP_Send_Sentences                       0x00001c71   Thumb Code   212  app.o(.text.APP_Send_Sentences)
    APP_System_Init                          0x00001d45   Thumb Code    44  app.o(.text.APP_System_Init)
    APP_To_Degree                            0x00001d71   Thumb Code   132  app.o(.text.APP_To_Degree)
    APP_To_Radian                            0x00001df9   Thumb Code    40  app.o(.text.APP_To_Radian)
    APP_UART_INIT                            0x00001e21   Thumb Code    24  app.o(.text.APP_UART_INIT)
    APP_Write_Point                          0x00001e39   Thumb Code    40  app.o(.text.APP_Write_Point)
    HAL_GPS_Read                             0x00001e89   Thumb Code   124  gps.o(.text.HAL_GPS_Read)
    HAL_LCD_Clear                            0x00001f05   Thumb Code    10  lcd.o(.text.HAL_LCD_Clear)
    HAL_LCD_Init                             0x00001f11   Thumb Code    38  lcd.o(.text.HAL_LCD_Init)
    HAL_LCD_Send_CMD                         0x00001f39   Thumb Code    90  lcd.o(.text.HAL_LCD_Send_CMD)
    HAL_LCD_Send_Char                        0x00001f95   Thumb Code    90  lcd.o(.text.HAL_LCD_Send_Char)
    HAL_LCD_Send_Number                      0x00001ff1   Thumb Code    44  lcd.o(.text.HAL_LCD_Send_Number)
    HAL_LCD_Send_String                      0x0000201d   Thumb Code    34  lcd.o(.text.HAL_LCD_Send_String)
    HAL_LCD_XY                               0x00002041   Thumb Code    26  lcd.o(.text.HAL_LCD_XY)
    HAL_LEDS_INIT                            0x0000205d   Thumb Code    56  led.o(.text.HAL_LEDS_INIT)
    HAL_LED_SET                              0x00002095   Thumb Code    20  led.o(.text.HAL_LED_SET)
    HAL_SWITCH_GET                           0x000020a9   Thumb Code    36  switch.o(.text.HAL_SWITCH_GET)
    MCAL_EEPROM_Config_BlockOffset           0x00002141   Thumb Code    20  eeprom_programme.o(.text.MCAL_EEPROM_Config_BlockOffset)
    MCAL_EEPROM_Fix_Error                    0x00002155   Thumb Code    52  eeprom_programme.o(.text.MCAL_EEPROM_Fix_Error)
    MCAL_EEPROM_INIT                         0x00002189   Thumb Code    76  eeprom_programme.o(.text.MCAL_EEPROM_INIT)
    MCAL_EEPROM_Read                         0x000021d5   Thumb Code    26  eeprom_programme.o(.text.MCAL_EEPROM_Read)
    MCAL_EEPROM_Software_Reset               0x000021f1   Thumb Code    40  eeprom_programme.o(.text.MCAL_EEPROM_Software_Reset)
    MCAL_EEPROM_Write                        0x00002219   Thumb Code    26  eeprom_programme.o(.text.MCAL_EEPROM_Write)
    MCAL_GPIO_GetPinValue                    0x00002235   Thumb Code    30  gpio_proggramm.o(.text.MCAL_GPIO_GetPinValue)
    MCAL_GPIO_INIT                           0x00002255   Thumb Code    60  gpio_proggramm.o(.text.MCAL_GPIO_INIT)
    MCAL_GPIO_SetPinMode                     0x00002291   Thumb Code   142  gpio_proggramm.o(.text.MCAL_GPIO_SetPinMode)
    MCAL_GPIO_SetPinValue                    0x00002321   Thumb Code    38  gpio_proggramm.o(.text.MCAL_GPIO_SetPinValue)
    MCAL_STK_Delay_ms                        0x00002349   Thumb Code    28  stk_program.o(.text.MCAL_STK_Delay_ms)
    MCAL_UART_Init                           0x00002369   Thumb Code   216  uart_src.o(.text.MCAL_UART_Init)
    MCAL_UART_Receive_Byte_Poll              0x00002441   Thumb Code    16  uart_src.o(.text.MCAL_UART_Receive_Byte_Poll)
    MCAL_UART_Send_Byte_Poll                 0x00002451   Thumb Code    14  uart_src.o(.text.MCAL_UART_Send_Byte_Poll)
    MCAL_UART_Send_String                    0x00002461   Thumb Code    34  uart_src.o(.text.MCAL_UART_Send_String)
    STK_wait                                 0x000024c1   Thumb Code    34  stk_program.o(.text.STK_wait)
    SystemInit                               0x000024e5   Thumb Code   112  system_tm4c123.o(.text.SystemInit)
    delay_ms                                 0x00002785   Thumb Code    40  lcd.o(.text.delay_ms)
    main                                     0x000027b1   Thumb Code   500  main.o(.text.main)
    parse_GPS_data                           0x000029a5   Thumb Code   126  gps.o(.text.parse_GPS_data)
    _btod_d2e                                0x00002a23   Thumb Code    62  btod.o(CL$$btod_d2e)
    _d2e_denorm_low                          0x00002a61   Thumb Code    70  btod.o(CL$$btod_d2e_denorm_low)
    _d2e_norm_op1                            0x00002aa7   Thumb Code    96  btod.o(CL$$btod_d2e_norm_op1)
    __btod_div_common                        0x00002b07   Thumb Code   696  btod.o(CL$$btod_div_common)
    _e2d                                     0x00002e41   Thumb Code   122  btod.o(CL$$btod_e2d)
    _e2e                                     0x00002ec5   Thumb Code   220  btod.o(CL$$btod_e2e)
    _btod_ediv                               0x00002fa1   Thumb Code    42  btod.o(CL$$btod_ediv)
    _btod_edivd                              0x00002fcb   Thumb Code    42  btod.o(CL$$btod_edivd)
    _btod_emul                               0x00002ff5   Thumb Code    42  btod.o(CL$$btod_emul)
    _btod_emuld                              0x0000301f   Thumb Code    42  btod.o(CL$$btod_emuld)
    __btod_mult_common                       0x00003049   Thumb Code   580  btod.o(CL$$btod_mult_common)
    __ARM_fpclassify                         0x0000328d   Thumb Code    48  fpclassify.o(i.__ARM_fpclassify)
    __hardfp___mathlib_tofloat               0x000032c1   Thumb Code   232  narrow.o(i.__hardfp___mathlib_tofloat)
    __hardfp_atan                            0x000033b9   Thumb Code   622  atan.o(i.__hardfp_atan)
    __hardfp_atan2                           0x00003691   Thumb Code   448  atan2.o(i.__hardfp_atan2)
    __hardfp_atof                            0x00003891   Thumb Code    46  atof.o(i.__hardfp_atof)
    __hardfp_cos                             0x000038c9   Thumb Code   180  cos.o(i.__hardfp_cos)
    __hardfp_ldexp                           0x00003991   Thumb Code   200  ldexp.o(i.__hardfp_ldexp)
    __hardfp_pow                             0x00003a61   Thumb Code  3072  pow.o(i.__hardfp_pow)
    __hardfp_sin                             0x000046b1   Thumb Code   180  sin.o(i.__hardfp_sin)
    __hardfp_sqrt                            0x00004779   Thumb Code   122  sqrt.o(i.__hardfp_sqrt)
    __ieee754_rem_pio2                       0x000047f9   Thumb Code   938  rred.o(i.__ieee754_rem_pio2)
    __kernel_cos                             0x00004c31   Thumb Code   322  cos_i.o(i.__kernel_cos)
    __kernel_poly                            0x00004da1   Thumb Code   248  poly.o(i.__kernel_poly)
    __kernel_sin                             0x00004e99   Thumb Code   280  sin_i.o(i.__kernel_sin)
    __mathlib_dbl_divzero                    0x00004fc9   Thumb Code    28  dunder.o(i.__mathlib_dbl_divzero)
    __mathlib_dbl_infnan                     0x00004ff9   Thumb Code    20  dunder.o(i.__mathlib_dbl_infnan)
    __mathlib_dbl_infnan2                    0x0000500d   Thumb Code    20  dunder.o(i.__mathlib_dbl_infnan2)
    __mathlib_dbl_invalid                    0x00005021   Thumb Code    24  dunder.o(i.__mathlib_dbl_invalid)
    __mathlib_dbl_overflow                   0x00005041   Thumb Code    24  dunder.o(i.__mathlib_dbl_overflow)
    __mathlib_dbl_underflow                  0x00005061   Thumb Code    24  dunder.o(i.__mathlib_dbl_underflow)
    __mathlib_narrow                         0x00005081   Thumb Code    18  narrow.o(i.__mathlib_narrow)
    __support_ldexp                          0x00005093   Thumb Code    20  ldexp.o(i.__support_ldexp)
    _is_digit                                0x000050a7   Thumb Code    14  __printf_wp.o(i._is_digit)
    atan                                     0x000050b5   Thumb Code    16  atan.o(i.atan)
    fabs                                     0x000050c5   Thumb Code    24  fabs.o(i.fabs)
    frexp                                    0x000050e1   Thumb Code   118  frexp.o(i.frexp)
    sqrt                                     0x0000516d   Thumb Code   110  sqrt.o(i.sqrt)
    _get_lc_numeric                          0x000051dd   Thumb Code    44  lc_numeric_c.o(locale$$code)
    _get_lc_ctype                            0x00005209   Thumb Code    44  lc_ctype_c.o(locale$$code)
    __aeabi_dneg                             0x00005235   Thumb Code     0  basic.o(x$fpl$basic)
    _dneg                                    0x00005235   Thumb Code     6  basic.o(x$fpl$basic)
    __aeabi_fneg                             0x0000523b   Thumb Code     0  basic.o(x$fpl$basic)
    _fneg                                    0x0000523b   Thumb Code     6  basic.o(x$fpl$basic)
    _dabs                                    0x00005241   Thumb Code     6  basic.o(x$fpl$basic)
    _fabs                                    0x00005247   Thumb Code     6  basic.o(x$fpl$basic)
    __aeabi_d2f                              0x0000524d   Thumb Code     0  d2f.o(x$fpl$d2f)
    _d2f                                     0x0000524d   Thumb Code    98  d2f.o(x$fpl$d2f)
    __aeabi_dadd                             0x000052b1   Thumb Code     0  daddsub_clz.o(x$fpl$dadd)
    _dadd                                    0x000052b1   Thumb Code   332  daddsub_clz.o(x$fpl$dadd)
    __fpl_dcheck_NaN1                        0x00005401   Thumb Code    10  dcheck1.o(x$fpl$dcheck1)
    __fpl_dcmp_Inf                           0x00005411   Thumb Code    24  dcmpi.o(x$fpl$dcmpinf)
    __aeabi_ddiv                             0x00005429   Thumb Code     0  ddiv.o(x$fpl$ddiv)
    _ddiv                                    0x00005429   Thumb Code   552  ddiv.o(x$fpl$ddiv)
    __aeabi_cdcmpeq                          0x000056d9   Thumb Code     0  deqf.o(x$fpl$deqf)
    _dcmpeq                                  0x000056d9   Thumb Code   120  deqf.o(x$fpl$deqf)
    __aeabi_d2iz                             0x00005751   Thumb Code     0  dfix.o(x$fpl$dfix)
    _dfix                                    0x00005751   Thumb Code    94  dfix.o(x$fpl$dfix)
    __aeabi_d2uiz                            0x000057b1   Thumb Code     0  dfixu.o(x$fpl$dfixu)
    _dfixu                                   0x000057b1   Thumb Code    90  dfixu.o(x$fpl$dfixu)
    __aeabi_i2d                              0x0000580b   Thumb Code     0  dflt_clz.o(x$fpl$dflt)
    _dflt                                    0x0000580b   Thumb Code    46  dflt_clz.o(x$fpl$dflt)
    __aeabi_ui2d                             0x00005839   Thumb Code     0  dflt_clz.o(x$fpl$dfltu)
    _dfltu                                   0x00005839   Thumb Code    38  dflt_clz.o(x$fpl$dfltu)
    __aeabi_cdcmpge                          0x00005861   Thumb Code     0  dgeqf.o(x$fpl$dgeqf)
    _dcmpge                                  0x00005861   Thumb Code   120  dgeqf.o(x$fpl$dgeqf)
    __aeabi_cdcmple                          0x000058d9   Thumb Code     0  dleqf.o(x$fpl$dleqf)
    _dcmple                                  0x000058d9   Thumb Code   120  dleqf.o(x$fpl$dleqf)
    __fpl_dcmple_InfNaN                      0x0000593b   Thumb Code     0  dleqf.o(x$fpl$dleqf)
    __aeabi_dmul                             0x00005951   Thumb Code     0  dmul.o(x$fpl$dmul)
    _dmul                                    0x00005951   Thumb Code   332  dmul.o(x$fpl$dmul)
    __fpl_dnaninf                            0x00005aa5   Thumb Code   156  dnaninf.o(x$fpl$dnaninf)
    __fpl_dretinf                            0x00005b41   Thumb Code    12  dretinf.o(x$fpl$dretinf)
    __aeabi_cdrcmple                         0x00005b4d   Thumb Code     0  drleqf.o(x$fpl$drleqf)
    _drcmple                                 0x00005b4d   Thumb Code   108  drleqf.o(x$fpl$drleqf)
    __aeabi_drsub                            0x00005bb9   Thumb Code     0  daddsub_clz.o(x$fpl$drsb)
    _drsb                                    0x00005bb9   Thumb Code    22  daddsub_clz.o(x$fpl$drsb)
    _dsqrt                                   0x00005bd1   Thumb Code   404  dsqrt_umaal.o(x$fpl$dsqrt)
    __aeabi_dsub                             0x00005d69   Thumb Code     0  daddsub_clz.o(x$fpl$dsub)
    _dsub                                    0x00005d69   Thumb Code   464  daddsub_clz.o(x$fpl$dsub)
    __aeabi_f2d                              0x00005f3d   Thumb Code     0  f2d.o(x$fpl$f2d)
    _f2d                                     0x00005f3d   Thumb Code    86  f2d.o(x$fpl$f2d)
    __aeabi_dcmpeq                           0x00005f93   Thumb Code     0  dcmp.o(x$fpl$fcmp)
    _deq                                     0x00005f93   Thumb Code    14  dcmp.o(x$fpl$fcmp)
    _dneq                                    0x00005fa1   Thumb Code    14  dcmp.o(x$fpl$fcmp)
    __aeabi_dcmpgt                           0x00005faf   Thumb Code     0  dcmp.o(x$fpl$fcmp)
    _dgr                                     0x00005faf   Thumb Code    14  dcmp.o(x$fpl$fcmp)
    __aeabi_dcmpge                           0x00005fbd   Thumb Code     0  dcmp.o(x$fpl$fcmp)
    _dgeq                                    0x00005fbd   Thumb Code    14  dcmp.o(x$fpl$fcmp)
    __aeabi_dcmple                           0x00005fcb   Thumb Code     0  dcmp.o(x$fpl$fcmp)
    _dleq                                    0x00005fcb   Thumb Code    14  dcmp.o(x$fpl$fcmp)
    __aeabi_dcmplt                           0x00005fd9   Thumb Code     0  dcmp.o(x$fpl$fcmp)
    _dls                                     0x00005fd9   Thumb Code    14  dcmp.o(x$fpl$fcmp)
    __fpl_fnaninf                            0x00005fe7   Thumb Code   140  fnaninf.o(x$fpl$fnaninf)
    _fp_init                                 0x00006073   Thumb Code    26  fpinit.o(x$fpl$fpinit)
    __fplib_config_fpu_vfp                   0x0000608b   Thumb Code     0  fpinit.o(x$fpl$fpinit)
    __fplib_config_pureend_doubles           0x0000608b   Thumb Code     0  fpinit.o(x$fpl$fpinit)
    __fpl_fretinf                            0x0000608d   Thumb Code    10  fretinf.o(x$fpl$fretinf)
    __ieee_status                            0x00006097   Thumb Code     6  istatus.o(x$fpl$ieeestatus)
    _printf_fp_dec                           0x0000609d   Thumb Code     4  printf1.o(x$fpl$printf1)
    __fpl_return_NaN                         0x000060a1   Thumb Code   100  retnan.o(x$fpl$retnan)
    __ARM_scalbn                             0x00006105   Thumb Code    92  scalbn.o(x$fpl$scalbn)
    _scanf_real                              0x00006161   Thumb Code     4  scanf1.o(x$fpl$scanf1)
    _scanf_hex_real                          0x00006165   Thumb Code     4  scanf2.o(x$fpl$scanf2)
    _scanf_infnan                            0x00006169   Thumb Code     4  scanf2.o(x$fpl$scanf2)
    __fpl_cmpreturn                          0x0000616d   Thumb Code    48  trapv.o(x$fpl$trapveneer)
    __I$use$fp                               0x0000619c   Number         0  usenofp.o(x$fpl$usenofp)
    __mathlib_zero                           0x000062f0   Data           8  qnan.o(.constdata)
    Region$$Table$$Base                      0x00006494   Number         0  anon$$obj.o(Region$$Table)
    Region$$Table$$Limit                     0x000064b4   Number         0  anon$$obj.o(Region$$Table)
    __aeabi_HUGE_VAL                         0x000064b4   Data           0  fpconst.o(c$$dinf)
    __aeabi_HUGE_VALL                        0x000064b4   Data           0  fpconst.o(c$$dinf)
    __aeabi_INFINITY                         0x000064b4   Data           0  fpconst.o(c$$dinf)
    __dInf                                   0x000064b4   Data           0  fpconst.o(c$$dinf)
    __huge_val                               0x000064b4   Data           0  fpconst.o(c$$dinf)
    __dbl_max                                0x000064bc   Data           0  fpconst.o(c$$dmax)
    __ctype                                  0x000064ed   Data           0  lc_ctype_c.o(locale$$data)
    counter                                  0x20000000   Data           4  main.o(.data.counter)
    __libspace_start                         0x20000008   Data          96  libspace.o(.bss)
    GPS_Sentence                             0x20000068   Data         100  gps.o(.bss.GPS_Sentence)
    __temporary_stack_top$libspace           0x20000068   Data           0  libspace.o(.bss)
    cfg1                                     0x200000cc   Data          12  main.o(.bss.cfg1)
    cfg2                                     0x200000d8   Data          12  main.o(.bss.cfg2)
    cmd                                      0x200000e4   Data           1  main.o(.bss.cmd)
    current_latitude                         0x200000e8   Data           4  main.o(.bss.current_latitude)
    current_longitude                        0x200000ec   Data           4  main.o(.bss.current_longitude)
    deltaLat                                 0x200000f0   Data           4  app.o(.bss.deltaLat)
    deltaLong                                0x200000f4   Data           4  app.o(.bss.deltaLong)
    distance                                 0x200000f8   Data           4  main.o(.bss.distance)
    prev_latitude                            0x200000fc   Data           4  main.o(.bss.prev_latitude)
    prev_longitude                           0x20000100   Data           4  main.o(.bss.prev_longitude)



==============================================================================

Memory Map of the image

  Image Entry point : 0x00000339

  Load Region LR_1 (Base: 0x00000000, Size: 0x000065f4, Max: 0xffffffff, ABSOLUTE)

    Execution Region ER_RO (Exec base: 0x00000000, Load base: 0x00000000, Size: 0x000065f0, Max: 0xffffffff, ABSOLUTE)

    Exec Addr    Load Addr    Size         Type   Attr      Idx    E Section Name        Object

    0x00000000   0x00000000   0x0000026c   Data   RO          226    RESET               startup_tm4c123.o
    0x0000026c   0x0000026c   0x00000008   Code   RO          290  * !!!main             c_w.l(__main.o)
    0x00000274   0x00000274   0x00000034   Code   RO          784    !!!scatter          c_w.l(__scatter.o)
    0x000002a8   0x000002a8   0x0000001a   Code   RO          786    !!handler_copy      c_w.l(__scatter_copy.o)
    0x000002c2   0x000002c2   0x00000002   PAD
    0x000002c4   0x000002c4   0x0000001c   Code   RO          788    !!handler_zi        c_w.l(__scatter_zi.o)
    0x000002e0   0x000002e0   0x00000000   Code   RO          285    .ARM.Collect$$_printf_percent$$00000000  c_w.l(_printf_percent.o)
    0x000002e0   0x000002e0   0x00000006   Code   RO          284    .ARM.Collect$$_printf_percent$$00000003  c_w.l(_printf_f.o)
    0x000002e6   0x000002e6   0x00000006   Code   RO          283    .ARM.Collect$$_printf_percent$$00000009  c_w.l(_printf_d.o)
    0x000002ec   0x000002ec   0x00000004   Code   RO          405    .ARM.Collect$$_printf_percent$$00000017  c_w.l(_printf_percent_end.o)
    0x000002f0   0x000002f0   0x00000002   Code   RO          589    .ARM.Collect$$libinit$$00000000  c_w.l(libinit.o)
    0x000002f2   0x000002f2   0x00000004   Code   RO          590    .ARM.Collect$$libinit$$00000001  c_w.l(libinit2.o)
    0x000002f6   0x000002f6   0x00000000   Code   RO          593    .ARM.Collect$$libinit$$00000004  c_w.l(libinit2.o)
    0x000002f6   0x000002f6   0x00000000   Code   RO          596    .ARM.Collect$$libinit$$0000000A  c_w.l(libinit2.o)
    0x000002f6   0x000002f6   0x00000000   Code   RO          598    .ARM.Collect$$libinit$$0000000C  c_w.l(libinit2.o)
    0x000002f6   0x000002f6   0x00000000   Code   RO          600    .ARM.Collect$$libinit$$0000000E  c_w.l(libinit2.o)
    0x000002f6   0x000002f6   0x00000006   Code   RO          601    .ARM.Collect$$libinit$$0000000F  c_w.l(libinit2.o)
    0x000002fc   0x000002fc   0x00000000   Code   RO          603    .ARM.Collect$$libinit$$00000011  c_w.l(libinit2.o)
    0x000002fc   0x000002fc   0x0000000c   Code   RO          604    .ARM.Collect$$libinit$$00000012  c_w.l(libinit2.o)
    0x00000308   0x00000308   0x00000000   Code   RO          605    .ARM.Collect$$libinit$$00000013  c_w.l(libinit2.o)
    0x00000308   0x00000308   0x00000000   Code   RO          607    .ARM.Collect$$libinit$$00000015  c_w.l(libinit2.o)
    0x00000308   0x00000308   0x0000000a   Code   RO          608    .ARM.Collect$$libinit$$00000016  c_w.l(libinit2.o)
    0x00000312   0x00000312   0x00000000   Code   RO          609    .ARM.Collect$$libinit$$00000017  c_w.l(libinit2.o)
    0x00000312   0x00000312   0x00000000   Code   RO          611    .ARM.Collect$$libinit$$00000019  c_w.l(libinit2.o)
    0x00000312   0x00000312   0x00000000   Code   RO          613    .ARM.Collect$$libinit$$0000001B  c_w.l(libinit2.o)
    0x00000312   0x00000312   0x00000000   Code   RO          615    .ARM.Collect$$libinit$$0000001D  c_w.l(libinit2.o)
    0x00000312   0x00000312   0x00000000   Code   RO          617    .ARM.Collect$$libinit$$0000001F  c_w.l(libinit2.o)
    0x00000312   0x00000312   0x00000000   Code   RO          619    .ARM.Collect$$libinit$$00000021  c_w.l(libinit2.o)
    0x00000312   0x00000312   0x00000000   Code   RO          621    .ARM.Collect$$libinit$$00000023  c_w.l(libinit2.o)
    0x00000312   0x00000312   0x00000000   Code   RO          623    .ARM.Collect$$libinit$$00000025  c_w.l(libinit2.o)
    0x00000312   0x00000312   0x00000000   Code   RO          627    .ARM.Collect$$libinit$$0000002C  c_w.l(libinit2.o)
    0x00000312   0x00000312   0x00000000   Code   RO          629    .ARM.Collect$$libinit$$0000002E  c_w.l(libinit2.o)
    0x00000312   0x00000312   0x00000000   Code   RO          631    .ARM.Collect$$libinit$$00000030  c_w.l(libinit2.o)
    0x00000312   0x00000312   0x00000000   Code   RO          633    .ARM.Collect$$libinit$$00000032  c_w.l(libinit2.o)
    0x00000312   0x00000312   0x00000002   Code   RO          634    .ARM.Collect$$libinit$$00000033  c_w.l(libinit2.o)
    0x00000314   0x00000314   0x00000002   Code   RO          714    .ARM.Collect$$libshutdown$$00000000  c_w.l(libshutdown.o)
    0x00000316   0x00000316   0x00000000   Code   RO          741    .ARM.Collect$$libshutdown$$00000002  c_w.l(libshutdown2.o)
    0x00000316   0x00000316   0x00000000   Code   RO          743    .ARM.Collect$$libshutdown$$00000004  c_w.l(libshutdown2.o)
    0x00000316   0x00000316   0x00000000   Code   RO          746    .ARM.Collect$$libshutdown$$00000007  c_w.l(libshutdown2.o)
    0x00000316   0x00000316   0x00000000   Code   RO          749    .ARM.Collect$$libshutdown$$0000000A  c_w.l(libshutdown2.o)
    0x00000316   0x00000316   0x00000000   Code   RO          751    .ARM.Collect$$libshutdown$$0000000C  c_w.l(libshutdown2.o)
    0x00000316   0x00000316   0x00000000   Code   RO          754    .ARM.Collect$$libshutdown$$0000000F  c_w.l(libshutdown2.o)
    0x00000316   0x00000316   0x00000002   Code   RO          755    .ARM.Collect$$libshutdown$$00000010  c_w.l(libshutdown2.o)
    0x00000318   0x00000318   0x00000000   Code   RO          390    .ARM.Collect$$rtentry$$00000000  c_w.l(__rtentry.o)
    0x00000318   0x00000318   0x00000000   Code   RO          487    .ARM.Collect$$rtentry$$00000002  c_w.l(__rtentry2.o)
    0x00000318   0x00000318   0x00000006   Code   RO          499    .ARM.Collect$$rtentry$$00000004  c_w.l(__rtentry4.o)
    0x0000031e   0x0000031e   0x00000000   Code   RO          489    .ARM.Collect$$rtentry$$00000009  c_w.l(__rtentry2.o)
    0x0000031e   0x0000031e   0x00000004   Code   RO          490    .ARM.Collect$$rtentry$$0000000A  c_w.l(__rtentry2.o)
    0x00000322   0x00000322   0x00000000   Code   RO          492    .ARM.Collect$$rtentry$$0000000C  c_w.l(__rtentry2.o)
    0x00000322   0x00000322   0x00000008   Code   RO          493    .ARM.Collect$$rtentry$$0000000D  c_w.l(__rtentry2.o)
    0x0000032a   0x0000032a   0x00000002   Code   RO          637    .ARM.Collect$$rtexit$$00000000  c_w.l(rtexit.o)
    0x0000032c   0x0000032c   0x00000000   Code   RO          676    .ARM.Collect$$rtexit$$00000002  c_w.l(rtexit2.o)
    0x0000032c   0x0000032c   0x00000004   Code   RO          677    .ARM.Collect$$rtexit$$00000003  c_w.l(rtexit2.o)
    0x00000330   0x00000330   0x00000006   Code   RO          678    .ARM.Collect$$rtexit$$00000004  c_w.l(rtexit2.o)
    0x00000336   0x00000336   0x00000002   PAD
    0x00000338   0x00000338   0x00000114   Code   RO          227  * .text               startup_tm4c123.o
    0x0000044c   0x0000044c   0x00000028   Code   RO          255    .text               c_w.l(noretval__2sprintf.o)
    0x00000474   0x00000474   0x00000034   Code   RO          257    .text               c_w.l(noretval__2snprintf.o)
    0x000004a8   0x000004a8   0x00000078   Code   RO          261    .text               c_w.l(_printf_dec.o)
    0x00000520   0x00000520   0x0000010e   Code   RO          271    .text               c_w.l(__printf_wp.o)
    0x0000062e   0x0000062e   0x00000004   Code   RO          286    .text               c_w.l(strtok_r.o)
    0x00000632   0x00000632   0x00000006   Code   RO          288    .text               c_w.l(heapauxi.o)
    0x00000638   0x00000638   0x00000016   Code   RO          391    .text               c_w.l(_rserrno.o)
    0x0000064e   0x0000064e   0x000000b2   Code   RO          393    .text               c_w.l(_printf_intcommon.o)
    0x00000700   0x00000700   0x0000041c   Code   RO          395    .text               c_w.l(_printf_fp_dec.o)
    0x00000b1c   0x00000b1c   0x00000030   Code   RO          399    .text               c_w.l(_printf_char_common.o)
    0x00000b4c   0x00000b4c   0x0000000a   Code   RO          401    .text               c_w.l(_sputc.o)
    0x00000b56   0x00000b56   0x00000010   Code   RO          403    .text               c_w.l(_snputc.o)
    0x00000b66   0x00000b66   0x00000002   PAD
    0x00000b68   0x00000b68   0x000000b0   Code   RO          406    .text               c_w.l(strtod.o)
    0x00000c18   0x00000c18   0x00000044   Code   RO          408    .text               c_w.l(strtok_int.o)
    0x00000c5c   0x00000c5c   0x00000008   Code   RO          504    .text               c_w.l(rt_locale_intlibspace.o)
    0x00000c64   0x00000c64   0x00000008   Code   RO          509    .text               c_w.l(rt_errno_addr_intlibspace.o)
    0x00000c6c   0x00000c6c   0x0000008a   Code   RO          511    .text               c_w.l(lludiv10.o)
    0x00000cf6   0x00000cf6   0x00000012   Code   RO          513    .text               c_w.l(isspace.o)
    0x00000d08   0x00000d08   0x00000080   Code   RO          515    .text               c_w.l(_printf_fp_infnan.o)
    0x00000d88   0x00000d88   0x00000040   Code   RO          519    .text               c_w.l(_sgetc.o)
    0x00000dc8   0x00000dc8   0x000000e4   Code   RO          521    .text               c_w.l(bigflt0.o)
    0x00000eac   0x00000eac   0x00000020   Code   RO          551    .text               c_w.l(strcspn.o)
    0x00000ecc   0x00000ecc   0x0000001c   Code   RO          553    .text               c_w.l(strspn.o)
    0x00000ee8   0x00000ee8   0x00000008   Code   RO          567    .text               c_w.l(libspace.o)
    0x00000ef0   0x00000ef0   0x0000004a   Code   RO          570    .text               c_w.l(sys_stackheap_outer.o)
    0x00000f3a   0x00000f3a   0x00000002   PAD
    0x00000f3c   0x00000f3c   0x00000010   Code   RO          572    .text               c_w.l(rt_ctype_table.o)
    0x00000f4c   0x00000f4c   0x000004f8   Code   RO          574    .text               c_w.l(scanf_fp.o)
    0x00001444   0x00001444   0x00000012   Code   RO          580    .text               c_w.l(exit.o)
    0x00001456   0x00001456   0x00000002   PAD
    0x00001458   0x00001458   0x0000007c   Code   RO          582    .text               c_w.l(strcmpv7em.o)
    0x000014d4   0x000014d4   0x00000026   Code   RO          639    .text               c_w.l(llshl.o)
    0x000014fa   0x000014fa   0x00000002   PAD
    0x000014fc   0x000014fc   0x00000320   Code   RO          682    .text               c_w.l(scanf_hexfp.o)
    0x0000181c   0x0000181c   0x00000134   Code   RO          684    .text               c_w.l(scanf_infnan.o)
    0x00001950   0x00001950   0x0000000c   Code   RO          698    .text               c_w.l(sys_exit.o)
    0x0000195c   0x0000195c   0x0000001c   Code   RO          706    .text               c_w.l(_chval.o)
    0x00001978   0x00001978   0x00000002   Code   RO          731    .text               c_w.l(use_no_semi.o)
    0x0000197a   0x0000197a   0x00000000   Code   RO          733    .text               c_w.l(indicate_semi.o)
    0x0000197a   0x0000197a   0x00000006   PAD
    0x00001980   0x00001980   0x000001ac   Code   RO          189    .text.APP_Compute_Distance  app.o
    0x00001b2c   0x00001b2c   0x000000a4   Code   RO          211    .text.APP_Destination_Reached  app.o
    0x00001bd0   0x00001bd0   0x00000018   Code   RO          191    .text.APP_Float_To_Int  app.o
    0x00001be8   0x00001be8   0x00000018   Code   RO          207    .text.APP_LCD_Clear_Write  app.o
    0x00001c00   0x00001c00   0x00000014   Code   RO          203    .text.APP_LCD_Write  app.o
    0x00001c14   0x00001c14   0x00000038   Code   RO          209    .text.APP_Prompt_Dump_Read  app.o
    0x00001c4c   0x00001c4c   0x00000022   Code   RO          197    .text.APP_Read_Point  app.o
    0x00001c6e   0x00001c6e   0x00000002   PAD
    0x00001c70   0x00001c70   0x000000d4   Code   RO          201    .text.APP_Send_Sentences  app.o
    0x00001d44   0x00001d44   0x0000002c   Code   RO          213    .text.APP_System_Init  app.o
    0x00001d70   0x00001d70   0x00000084   Code   RO          185    .text.APP_To_Degree  app.o
    0x00001df4   0x00001df4   0x00000004   PAD
    0x00001df8   0x00001df8   0x00000028   Code   RO          187    .text.APP_To_Radian  app.o
    0x00001e20   0x00001e20   0x00000018   Code   RO          199    .text.APP_UART_INIT  app.o
    0x00001e38   0x00001e38   0x00000028   Code   RO          195    .text.APP_Write_Point  app.o
    0x00001e60   0x00001e60   0x00000014   Code   RO          145    .text.E_RESET       lcd.o
    0x00001e74   0x00001e74   0x00000014   Code   RO          143    .text.E_SET         lcd.o
    0x00001e88   0x00001e88   0x0000007c   Code   RO          109    .text.HAL_GPS_Read  gps.o
    0x00001f04   0x00001f04   0x0000000a   Code   RO          133    .text.HAL_LCD_Clear  lcd.o
    0x00001f0e   0x00001f0e   0x00000002   PAD
    0x00001f10   0x00001f10   0x00000026   Code   RO          123    .text.HAL_LCD_Init  lcd.o
    0x00001f36   0x00001f36   0x00000002   PAD
    0x00001f38   0x00001f38   0x0000005a   Code   RO          125    .text.HAL_LCD_Send_CMD  lcd.o
    0x00001f92   0x00001f92   0x00000002   PAD
    0x00001f94   0x00001f94   0x0000005a   Code   RO          127    .text.HAL_LCD_Send_Char  lcd.o
    0x00001fee   0x00001fee   0x00000002   PAD
    0x00001ff0   0x00001ff0   0x0000002c   Code   RO          131    .text.HAL_LCD_Send_Number  lcd.o
    0x0000201c   0x0000201c   0x00000022   Code   RO          129    .text.HAL_LCD_Send_String  lcd.o
    0x0000203e   0x0000203e   0x00000002   PAD
    0x00002040   0x00002040   0x0000001a   Code   RO          135    .text.HAL_LCD_XY    lcd.o
    0x0000205a   0x0000205a   0x00000002   PAD
    0x0000205c   0x0000205c   0x00000038   Code   RO          157    .text.HAL_LEDS_INIT  led.o
    0x00002094   0x00002094   0x00000014   Code   RO          159    .text.HAL_LED_SET   led.o
    0x000020a8   0x000020a8   0x00000024   Code   RO          175    .text.HAL_SWITCH_GET  switch.o
    0x000020cc   0x000020cc   0x00000074   Code   RO          137    .text.LCD_DATA_CTRL_Init  lcd.o
    0x00002140   0x00002140   0x00000014   Code   RO           30    .text.MCAL_EEPROM_Config_BlockOffset  eeprom_programme.o
    0x00002154   0x00002154   0x00000034   Code   RO           26    .text.MCAL_EEPROM_Fix_Error  eeprom_programme.o
    0x00002188   0x00002188   0x0000004c   Code   RO           22    .text.MCAL_EEPROM_INIT  eeprom_programme.o
    0x000021d4   0x000021d4   0x0000001a   Code   RO           32    .text.MCAL_EEPROM_Read  eeprom_programme.o
    0x000021ee   0x000021ee   0x00000002   PAD
    0x000021f0   0x000021f0   0x00000028   Code   RO           24    .text.MCAL_EEPROM_Software_Reset  eeprom_programme.o
    0x00002218   0x00002218   0x0000001a   Code   RO           34    .text.MCAL_EEPROM_Write  eeprom_programme.o
    0x00002232   0x00002232   0x00000002   PAD
    0x00002234   0x00002234   0x0000001e   Code   RO           52    .text.MCAL_GPIO_GetPinValue  gpio_proggramm.o
    0x00002252   0x00002252   0x00000002   PAD
    0x00002254   0x00002254   0x0000003c   Code   RO           46    .text.MCAL_GPIO_INIT  gpio_proggramm.o
    0x00002290   0x00002290   0x0000008e   Code   RO           48    .text.MCAL_GPIO_SetPinMode  gpio_proggramm.o
    0x0000231e   0x0000231e   0x00000002   PAD
    0x00002320   0x00002320   0x00000026   Code   RO           50    .text.MCAL_GPIO_SetPinValue  gpio_proggramm.o
    0x00002346   0x00002346   0x00000002   PAD
    0x00002348   0x00002348   0x0000001c   Code   RO           64    .text.MCAL_STK_Delay_ms  stk_program.o
    0x00002364   0x00002364   0x00000004   PAD
    0x00002368   0x00002368   0x000000d8   Code   RO           83    .text.MCAL_UART_Init  uart_src.o
    0x00002440   0x00002440   0x00000010   Code   RO           89    .text.MCAL_UART_Receive_Byte_Poll  uart_src.o
    0x00002450   0x00002450   0x0000000e   Code   RO           87    .text.MCAL_UART_Send_Byte_Poll  uart_src.o
    0x0000245e   0x0000245e   0x00000002   PAD
    0x00002460   0x00002460   0x00000022   Code   RO           95    .text.MCAL_UART_Send_String  uart_src.o
    0x00002482   0x00002482   0x00000002   PAD
    0x00002484   0x00002484   0x00000014   Code   RO          139    .text.RS_RESET      lcd.o
    0x00002498   0x00002498   0x00000014   Code   RO          147    .text.RS_SET        lcd.o
    0x000024ac   0x000024ac   0x00000014   Code   RO          141    .text.RW_RESET      lcd.o
    0x000024c0   0x000024c0   0x00000022   Code   RO           62    .text.STK_wait      stk_program.o
    0x000024e2   0x000024e2   0x00000002   PAD
    0x000024e4   0x000024e4   0x00000070   Code   RO          238    .text.SystemInit    system_tm4c123.o
    0x00002554   0x00002554   0x0000022e   Code   RO           85    .text.UART_GPIO_RCC  uart_src.o
    0x00002782   0x00002782   0x00000002   PAD
    0x00002784   0x00002784   0x00000028   Code   RO          121    .text.delay_ms      lcd.o
    0x000027ac   0x000027ac   0x00000004   PAD
    0x000027b0   0x000027b0   0x000001f4   Code   RO            2    .text.main          main.o
    0x000029a4   0x000029a4   0x0000007e   Code   RO          107    .text.parse_GPS_data  gps.o
    0x00002a22   0x00002a22   0x0000003e   Code   RO          524    CL$$btod_d2e        c_w.l(btod.o)
    0x00002a60   0x00002a60   0x00000046   Code   RO          526    CL$$btod_d2e_denorm_low  c_w.l(btod.o)
    0x00002aa6   0x00002aa6   0x00000060   Code   RO          525    CL$$btod_d2e_norm_op1  c_w.l(btod.o)
    0x00002b06   0x00002b06   0x00000338   Code   RO          534    CL$$btod_div_common  c_w.l(btod.o)
    0x00002e3e   0x00002e3e   0x00000002   PAD
    0x00002e40   0x00002e40   0x00000084   Code   RO          532    CL$$btod_e2d        c_w.l(btod.o)
    0x00002ec4   0x00002ec4   0x000000dc   Code   RO          531    CL$$btod_e2e        c_w.l(btod.o)
    0x00002fa0   0x00002fa0   0x0000002a   Code   RO          528    CL$$btod_ediv       c_w.l(btod.o)
    0x00002fca   0x00002fca   0x0000002a   Code   RO          530    CL$$btod_edivd      c_w.l(btod.o)
    0x00002ff4   0x00002ff4   0x0000002a   Code   RO          527    CL$$btod_emul       c_w.l(btod.o)
    0x0000301e   0x0000301e   0x0000002a   Code   RO          529    CL$$btod_emuld      c_w.l(btod.o)
    0x00003048   0x00003048   0x00000244   Code   RO          533    CL$$btod_mult_common  c_w.l(btod.o)
    0x0000328c   0x0000328c   0x00000030   Code   RO          470    i.__ARM_fpclassify  m_wm.l(fpclassify.o)
    0x000032bc   0x000032bc   0x00000004   PAD
    0x000032c0   0x000032c0   0x000000f8   Code   RO          667    i.__hardfp___mathlib_tofloat  m_wm.l(narrow.o)
    0x000033b8   0x000033b8   0x000002d8   Code   RO          433    i.__hardfp_atan     m_wm.l(atan.o)
    0x00003690   0x00003690   0x00000200   Code   RO          322    i.__hardfp_atan2    m_wm.l(atan2.o)
    0x00003890   0x00003890   0x00000038   Code   RO          334    i.__hardfp_atof     m_wm.l(atof.o)
    0x000038c8   0x000038c8   0x000000c8   Code   RO          340    i.__hardfp_cos      m_wm.l(cos.o)
    0x00003990   0x00003990   0x000000d0   Code   RO          715    i.__hardfp_ldexp    m_wm.l(ldexp.o)
    0x00003a60   0x00003a60   0x00000c50   Code   RO          352    i.__hardfp_pow      m_wm.l(pow.o)
    0x000046b0   0x000046b0   0x000000c8   Code   RO          366    i.__hardfp_sin      m_wm.l(sin.o)
    0x00004778   0x00004778   0x0000007a   Code   RO          378    i.__hardfp_sqrt     m_wm.l(sqrt.o)
    0x000047f2   0x000047f2   0x00000006   PAD
    0x000047f8   0x000047f8   0x00000438   Code   RO          475    i.__ieee754_rem_pio2  m_wm.l(rred.o)
    0x00004c30   0x00004c30   0x00000170   Code   RO          447    i.__kernel_cos      m_wm.l(cos_i.o)
    0x00004da0   0x00004da0   0x000000f8   Code   RO          472    i.__kernel_poly     m_wm.l(poly.o)
    0x00004e98   0x00004e98   0x00000130   Code   RO          480    i.__kernel_sin      m_wm.l(sin_i.o)
    0x00004fc8   0x00004fc8   0x00000030   Code   RO          450    i.__mathlib_dbl_divzero  m_wm.l(dunder.o)
    0x00004ff8   0x00004ff8   0x00000014   Code   RO          451    i.__mathlib_dbl_infnan  m_wm.l(dunder.o)
    0x0000500c   0x0000500c   0x00000014   Code   RO          452    i.__mathlib_dbl_infnan2  m_wm.l(dunder.o)
    0x00005020   0x00005020   0x00000020   Code   RO          453    i.__mathlib_dbl_invalid  m_wm.l(dunder.o)
    0x00005040   0x00005040   0x00000020   Code   RO          454    i.__mathlib_dbl_overflow  m_wm.l(dunder.o)
    0x00005060   0x00005060   0x00000020   Code   RO          456    i.__mathlib_dbl_underflow  m_wm.l(dunder.o)
    0x00005080   0x00005080   0x00000012   Code   RO          668    i.__mathlib_narrow  m_wm.l(narrow.o)
    0x00005092   0x00005092   0x00000014   Code   RO          717    i.__support_ldexp   m_wm.l(ldexp.o)
    0x000050a6   0x000050a6   0x0000000e   Code   RO          273    i._is_digit         c_w.l(__printf_wp.o)
    0x000050b4   0x000050b4   0x00000010   Code   RO          435    i.atan              m_wm.l(atan.o)
    0x000050c4   0x000050c4   0x00000018   Code   RO          466    i.fabs              m_wm.l(fabs.o)
    0x000050dc   0x000050dc   0x00000004   PAD
    0x000050e0   0x000050e0   0x0000008c   Code   RO          692    i.frexp             m_wm.l(frexp.o)
    0x0000516c   0x0000516c   0x0000006e   Code   RO          380    i.sqrt              m_wm.l(sqrt.o)
    0x000051da   0x000051da   0x00000002   PAD
    0x000051dc   0x000051dc   0x0000002c   Code   RO          549    locale$$code        c_w.l(lc_numeric_c.o)
    0x00005208   0x00005208   0x0000002c   Code   RO          647    locale$$code        c_w.l(lc_ctype_c.o)
    0x00005234   0x00005234   0x00000018   Code   RO          410    x$fpl$basic         fz_wm.l(basic.o)
    0x0000524c   0x0000524c   0x00000062   Code   RO          292    x$fpl$d2f           fz_wm.l(d2f.o)
    0x000052ae   0x000052ae   0x00000002   PAD
    0x000052b0   0x000052b0   0x00000150   Code   RO          294    x$fpl$dadd          fz_wm.l(daddsub_clz.o)
    0x00005400   0x00005400   0x00000010   Code   RO          555    x$fpl$dcheck1       fz_wm.l(dcheck1.o)
    0x00005410   0x00005410   0x00000018   Code   RO          557    x$fpl$dcmpinf       fz_wm.l(dcmpi.o)
    0x00005428   0x00005428   0x000002b0   Code   RO          303    x$fpl$ddiv          fz_wm.l(ddiv.o)
    0x000056d8   0x000056d8   0x00000078   Code   RO          412    x$fpl$deqf          fz_wm.l(deqf.o)
    0x00005750   0x00005750   0x0000005e   Code   RO          559    x$fpl$dfix          fz_wm.l(dfix.o)
    0x000057ae   0x000057ae   0x00000002   PAD
    0x000057b0   0x000057b0   0x0000005a   Code   RO          306    x$fpl$dfixu         fz_wm.l(dfixu.o)
    0x0000580a   0x0000580a   0x0000002e   Code   RO          311    x$fpl$dflt          fz_wm.l(dflt_clz.o)
    0x00005838   0x00005838   0x00000026   Code   RO          310    x$fpl$dfltu         fz_wm.l(dflt_clz.o)
    0x0000585e   0x0000585e   0x00000002   PAD
    0x00005860   0x00005860   0x00000078   Code   RO          414    x$fpl$dgeqf         fz_wm.l(dgeqf.o)
    0x000058d8   0x000058d8   0x00000078   Code   RO          416    x$fpl$dleqf         fz_wm.l(dleqf.o)
    0x00005950   0x00005950   0x00000154   Code   RO          316    x$fpl$dmul          fz_wm.l(dmul.o)
    0x00005aa4   0x00005aa4   0x0000009c   Code   RO          418    x$fpl$dnaninf       fz_wm.l(dnaninf.o)
    0x00005b40   0x00005b40   0x0000000c   Code   RO          420    x$fpl$dretinf       fz_wm.l(dretinf.o)
    0x00005b4c   0x00005b4c   0x0000006c   Code   RO          422    x$fpl$drleqf        fz_wm.l(drleqf.o)
    0x00005bb8   0x00005bb8   0x00000016   Code   RO          295    x$fpl$drsb          fz_wm.l(daddsub_clz.o)
    0x00005bce   0x00005bce   0x00000002   PAD
    0x00005bd0   0x00005bd0   0x00000198   Code   RO          424    x$fpl$dsqrt         fz_wm.l(dsqrt_umaal.o)
    0x00005d68   0x00005d68   0x000001d4   Code   RO          296    x$fpl$dsub          fz_wm.l(daddsub_clz.o)
    0x00005f3c   0x00005f3c   0x00000056   Code   RO          318    x$fpl$f2d           fz_wm.l(f2d.o)
    0x00005f92   0x00005f92   0x00000054   Code   RO          300    x$fpl$fcmp          fz_wm.l(dcmp.o)
    0x00005fe6   0x00005fe6   0x0000008c   Code   RO          426    x$fpl$fnaninf       fz_wm.l(fnaninf.o)
    0x00006072   0x00006072   0x0000001a   Code   RO          657    x$fpl$fpinit        fz_wm.l(fpinit.o)
    0x0000608c   0x0000608c   0x0000000a   Code   RO          428    x$fpl$fretinf       fz_wm.l(fretinf.o)
    0x00006096   0x00006096   0x00000006   Code   RO          563    x$fpl$ieeestatus    fz_wm.l(istatus.o)
    0x0000609c   0x0000609c   0x00000004   Code   RO          320    x$fpl$printf1       fz_wm.l(printf1.o)
    0x000060a0   0x000060a0   0x00000064   Code   RO          635    x$fpl$retnan        fz_wm.l(retnan.o)
    0x00006104   0x00006104   0x0000005c   Code   RO          430    x$fpl$scalbn        fz_wm.l(scalbn.o)
    0x00006160   0x00006160   0x00000004   Code   RO          565    x$fpl$scanf1        fz_wm.l(scanf1.o)
    0x00006164   0x00006164   0x00000008   Code   RO          659    x$fpl$scanf2        fz_wm.l(scanf2.o)
    0x0000616c   0x0000616c   0x00000030   Code   RO          665    x$fpl$trapveneer    fz_wm.l(trapv.o)
    0x0000619c   0x0000619c   0x00000000   Code   RO          432    x$fpl$usenofp       fz_wm.l(usenofp.o)
    0x0000619c   0x0000619c   0x00000004   PAD
    0x000061a0   0x000061a0   0x00000088   Data   RO          355    .constdata          m_wm.l(pow.o)
    0x00006228   0x00006228   0x00000098   Data   RO          436    .constdata          m_wm.l(atan.o)
    0x000062c0   0x000062c0   0x00000030   Data   RO          448    .constdata          m_wm.l(cos_i.o)
    0x000062f0   0x000062f0   0x00000008   Data   RO          474    .constdata          m_wm.l(qnan.o)
    0x000062f8   0x000062f8   0x000000cc   Data   RO          477    .constdata          m_wm.l(rred.o)
    0x000063c4   0x000063c4   0x00000004   PAD
    0x000063c8   0x000063c8   0x00000028   Data   RO          481    .constdata          m_wm.l(sin_i.o)
    0x000063f0   0x000063f0   0x00000094   Data   RO          522    .constdata          c_w.l(bigflt0.o)
    0x00006484   0x00006484   0x0000000e   Data   RO           13    .rodata.str1.1      main.o
    0x00006492   0x00006492   0x00000002   Data   RO          111    .rodata.str1.1      gps.o
    0x00006494   0x00006494   0x00000020   Data   RO          783    Region$$Table       anon$$obj.o
    0x000064b4   0x000064b4   0x00000008   Data   RO          653    c$$dinf             fz_wm.l(fpconst.o)
    0x000064bc   0x000064bc   0x00000008   Data   RO          656    c$$dmax             fz_wm.l(fpconst.o)
    0x000064c4   0x000064c4   0x0000001c   Data   RO          548    locale$$data        c_w.l(lc_numeric_c.o)
    0x000064e0   0x000064e0   0x00000110   Data   RO          646    locale$$data        c_w.l(lc_ctype_c.o)


    Execution Region ER_RW (Exec base: 0x20000000, Load base: 0x000065f0, Size: 0x00000004, Max: 0xffffffff, ABSOLUTE)

    Exec Addr    Load Addr    Size         Type   Attr      Idx    E Section Name        Object

    0x20000000   0x000065f0   0x00000004   Data   RW           10    .data.counter       main.o


    Execution Region ER_ZI (Exec base: 0x20000008, Load base: 0x000065f4, Size: 0x00000300, Max: 0xffffffff, ABSOLUTE)

    Exec Addr    Load Addr    Size         Type   Attr      Idx    E Section Name        Object

    0x20000008        -       0x00000060   Zero   RW          568    .bss                c_w.l(libspace.o)
    0x20000068        -       0x00000064   Zero   RW          112    .bss.GPS_Sentence   gps.o
    0x200000cc        -       0x0000000c   Zero   RW           11    .bss.cfg1           main.o
    0x200000d8        -       0x0000000c   Zero   RW           12    .bss.cfg2           main.o
    0x200000e4        -       0x00000001   Zero   RW            9    .bss.cmd            main.o
    0x200000e5   0x000065f4   0x00000003   PAD
    0x200000e8        -       0x00000004   Zero   RW            4    .bss.current_latitude  main.o
    0x200000ec        -       0x00000004   Zero   RW            5    .bss.current_longitude  main.o
    0x200000f0        -       0x00000004   Zero   RW          215    .bss.deltaLat       app.o
    0x200000f4        -       0x00000004   Zero   RW          216    .bss.deltaLong      app.o
    0x200000f8        -       0x00000004   Zero   RW            8    .bss.distance       main.o
    0x200000fc        -       0x00000004   Zero   RW            6    .bss.prev_latitude  main.o
    0x20000100        -       0x00000004   Zero   RW            7    .bss.prev_longitude  main.o
    0x20000104   0x000065f4   0x00000004   PAD
    0x20000108        -       0x00000000   Zero   RW          225    HEAP                startup_tm4c123.o
    0x20000108        -       0x00000200   Zero   RW          224    STACK               startup_tm4c123.o


==============================================================================

Image component sizes


      Code (inc. data)   RO Data    RW Data    ZI Data      Debug   Object Name

      1242        168          0          0          8       6218   app.o
       240          0          0          0          0       1723   eeprom_programme.o
       270          0          0          0          0       2453   gpio_proggramm.o
       250          8          2          0        100       3025   gps.o
       588          8          0          0          0       3209   lcd.o
        76          0          0          0          0       1874   led.o
       500         68         14          4         45       2316   main.o
       276         24        620          0        512       5472   startup_tm4c123.o
        62          0          0          0          0       2047   stk_program.o
        36          0          0          0          0       1583   switch.o
       112          0          0          0          0       6533   system_tm4c123.o
       838         32          0          0          0       3412   uart_src.o

    ----------------------------------------------------------------------
      4534        312        668          4        672      39865   Object Totals
         0          0         32          0          0          0   (incl. Generated)
        44          4          0          0          7          0   (incl. Padding)

    ----------------------------------------------------------------------

      Code (inc. data)   RO Data    RW Data    ZI Data      Debug   Library Member Name

         8          0          0          0          0         68   __main.o
       284          0          0          0          0        156   __printf_wp.o
         0          0          0          0          0          0   __rtentry.o
        12          0          0          0          0          0   __rtentry2.o
         6          0          0          0          0          0   __rtentry4.o
        52          8          0          0          0          0   __scatter.o
        26          0          0          0          0          0   __scatter_copy.o
        28          0          0          0          0          0   __scatter_zi.o
        28          0          0          0          0         68   _chval.o
        48          6          0          0          0         96   _printf_char_common.o
         6          0          0          0          0          0   _printf_d.o
       120         16          0          0          0         92   _printf_dec.o
         6          0          0          0          0          0   _printf_f.o
      1052          0          0          0          0        148   _printf_fp_dec.o
       128         16          0          0          0         84   _printf_fp_infnan.o
       178          0          0          0          0         88   _printf_intcommon.o
         0          0          0          0          0          0   _printf_percent.o
         4          0          0          0          0          0   _printf_percent_end.o
        22          0          0          0          0        100   _rserrno.o
        64          0          0          0          0         84   _sgetc.o
        16          0          0          0          0         68   _snputc.o
        10          0          0          0          0         68   _sputc.o
       228          4        148          0          0         96   bigflt0.o
      2152        136          0          0          0        960   btod.o
        18          0          0          0          0         80   exit.o
         6          0          0          0          0        152   heapauxi.o
         0          0          0          0          0          0   indicate_semi.o
        18          0          0          0          0         76   isspace.o
        44         10        272          0          0         76   lc_ctype_c.o
        44         10         28          0          0         76   lc_numeric_c.o
         2          0          0          0          0          0   libinit.o
        34          0          0          0          0          0   libinit2.o
         2          0          0          0          0          0   libshutdown.o
         2          0          0          0          0          0   libshutdown2.o
         8          4          0          0         96         68   libspace.o
        38          0          0          0          0         68   llshl.o
       138          0          0          0          0         80   lludiv10.o
        52          4          0          0          0         84   noretval__2snprintf.o
        40          6          0          0          0         84   noretval__2sprintf.o
        16          4          0          0          0         76   rt_ctype_table.o
         8          4          0          0          0         68   rt_errno_addr_intlibspace.o
         8          4          0          0          0         68   rt_locale_intlibspace.o
         2          0          0          0          0          0   rtexit.o
        10          0          0          0          0          0   rtexit2.o
      1272         16          0          0          0        168   scanf_fp.o
       800         14          0          0          0        100   scanf_hexfp.o
       308         16          0          0          0        100   scanf_infnan.o
       124          0          0          0          0         88   strcmpv7em.o
        32          0          0          0          0         80   strcspn.o
        28          0          0          0          0         80   strspn.o
       176         14          0          0          0        124   strtod.o
        68          4          0          0          0         84   strtok_int.o
         4          0          0          0          0         68   strtok_r.o
        12          4          0          0          0         68   sys_exit.o
        74          0          0          0          0         80   sys_stackheap_outer.o
         2          0          0          0          0         68   use_no_semi.o
        24          0          0          0          0        164   basic.o
        98          4          0          0          0        140   d2f.o
       826         16          0          0          0        500   daddsub_clz.o
        16          4          0          0          0        116   dcheck1.o
        84          0          0          0          0        244   dcmp.o
        24          0          0          0          0        116   dcmpi.o
       688        140          0          0          0        264   ddiv.o
       120          4          0          0          0        140   deqf.o
        94          4          0          0          0        140   dfix.o
        90          4          0          0          0        140   dfixu.o
        84          0          0          0          0        232   dflt_clz.o
       120          4          0          0          0        140   dgeqf.o
       120          4          0          0          0        140   dleqf.o
       340         12          0          0          0        152   dmul.o
       156          4          0          0          0        140   dnaninf.o
        12          0          0          0          0        116   dretinf.o
       108          0          0          0          0        128   drleqf.o
       408         56          0          0          0        168   dsqrt_umaal.o
        86          4          0          0          0        132   f2d.o
       140          4          0          0          0        132   fnaninf.o
         0          0         16          0          0          0   fpconst.o
        26          0          0          0          0        116   fpinit.o
        10          0          0          0          0        116   fretinf.o
         6          0          0          0          0        116   istatus.o
         4          0          0          0          0        116   printf1.o
       100          0          0          0          0        116   retnan.o
        92          0          0          0          0        116   scalbn.o
         4          0          0          0          0        116   scanf1.o
         8          0          0          0          0        132   scanf2.o
        48          0          0          0          0        116   trapv.o
         0          0          0          0          0          0   usenofp.o
       744        106        152          0          0        352   atan.o
       512         64          0          0          0        208   atan2.o
        56         10          0          0          0        132   atof.o
       200         20          0          0          0        164   cos.o
       368         46         48          0          0        200   cos_i.o
       184         44          0          0          0        744   dunder.o
        24          0          0          0          0        124   fabs.o
        48          0          0          0          0        124   fpclassify.o
       140         22          0          0          0        132   frexp.o
       228          8          0          0          0        308   ldexp.o
       266         16          0          0          0        308   narrow.o
       248          0          0          0          0        152   poly.o
      3152        296        136          0          0        352   pow.o
         0          0          8          0          0          0   qnan.o
      1080        142        204          0          0        188   rred.o
       200         20          0          0          0        164   sin.o
       304         24         40          0          0        208   sin_i.o
       232          0          0          0          0        296   sqrt.o

    ----------------------------------------------------------------------
     19838       1384       1056          0         96      13000   Library Totals
        48          2          4          0          0          0   (incl. Padding)

    ----------------------------------------------------------------------

      Code (inc. data)   RO Data    RW Data    ZI Data      Debug   Library Name

      7868        300        448          0         96       4340   c_w.l
      3936        264         16          0          0       4504   fz_wm.l
      7986        818        588          0          0       4156   m_wm.l

    ----------------------------------------------------------------------
     19838       1384       1056          0         96      13000   Library Totals

    ----------------------------------------------------------------------

==============================================================================


      Code (inc. data)   RO Data    RW Data    ZI Data      Debug   

     24372       1696       1724          4        768      44713   Grand Totals
     24372       1696       1724          4        768      44713   ELF Image Totals
     24372       1696       1724          4          0          0   ROM Totals

==============================================================================

    Total RO  Size (Code + RO Data)                26096 (  25.48kB)
    Total RW  Size (RW Data + ZI Data)               772 (   0.75kB)
    Total ROM Size (Code + RO Data + RW Data)      26100 (  25.49kB)

==============================================================================

